; ModuleID = 'celer.ll'
target datalayout = "e-p:64:64:64-i1:8:8-i8:8:8-i16:16:16-i32:32:32-i64:64:64-f32:32:32-f64:64:64-v64:64:64-v128:128:128-a0:0:64-s0:64:64-f80:128:128-n8:16:32:64-S128"
target triple = "x86_64-unknown-linux-gnu"

%struct._IO_FILE = type { i32, i8*, i8*, i8*, i8*, i8*, i8*, i8*, i8*, i8*, i8*, i8*, %struct._IO_marker*, %struct._IO_FILE*, i32, i32, i64, i16, i8, [1 x i8], i8*, i64, i8*, i8*, i8*, i8*, i64, i32, [20 x i8] }
%struct._IO_marker = type { %struct._IO_marker*, %struct._IO_FILE*, i32 }
%struct.timeval = type { i64, i64 }
%struct.timezone = type { i32, i32 }

@blosum62 = global [24 x [24 x i32]] [[24 x i32] [i32 4, i32 -1, i32 -2, i32 -2, i32 0, i32 -1, i32 -1, i32 0, i32 -2, i32 -1, i32 -1, i32 -1, i32 -1, i32 -2, i32 -1, i32 1, i32 0, i32 -3, i32 -2, i32 0, i32 -2, i32 -1, i32 0, i32 -4], [24 x i32] [i32 -1, i32 5, i32 0, i32 -2, i32 -3, i32 1, i32 0, i32 -2, i32 0, i32 -3, i32 -2, i32 2, i32 -1, i32 -3, i32 -2, i32 -1, i32 -1, i32 -3, i32 -2, i32 -3, i32 -1, i32 0, i32 -1, i32 -4], [24 x i32] [i32 -2, i32 0, i32 6, i32 1, i32 -3, i32 0, i32 0, i32 0, i32 1, i32 -3, i32 -3, i32 0, i32 -2, i32 -3, i32 -2, i32 1, i32 0, i32 -4, i32 -2, i32 -3, i32 3, i32 0, i32 -1, i32 -4], [24 x i32] [i32 -2, i32 -2, i32 1, i32 6, i32 -3, i32 0, i32 2, i32 -1, i32 -1, i32 -3, i32 -4, i32 -1, i32 -3, i32 -3, i32 -1, i32 0, i32 -1, i32 -4, i32 -3, i32 -3, i32 4, i32 1, i32 -1, i32 -4], [24 x i32] [i32 0, i32 -3, i32 -3, i32 -3, i32 9, i32 -3, i32 -4, i32 -3, i32 -3, i32 -1, i32 -1, i32 -3, i32 -1, i32 -2, i32 -3, i32 -1, i32 -1, i32 -2, i32 -2, i32 -1, i32 -3, i32 -3, i32 -2, i32 -4], [24 x i32] [i32 -1, i32 1, i32 0, i32 0, i32 -3, i32 5, i32 2, i32 -2, i32 0, i32 -3, i32 -2, i32 1, i32 0, i32 -3, i32 -1, i32 0, i32 -1, i32 -2, i32 -1, i32 -2, i32 0, i32 3, i32 -1, i32 -4], [24 x i32] [i32 -1, i32 0, i32 0, i32 2, i32 -4, i32 2, i32 5, i32 -2, i32 0, i32 -3, i32 -3, i32 1, i32 -2, i32 -3, i32 -1, i32 0, i32 -1, i32 -3, i32 -2, i32 -2, i32 1, i32 4, i32 -1, i32 -4], [24 x i32] [i32 0, i32 -2, i32 0, i32 -1, i32 -3, i32 -2, i32 -2, i32 6, i32 -2, i32 -4, i32 -4, i32 -2, i32 -3, i32 -3, i32 -2, i32 0, i32 -2, i32 -2, i32 -3, i32 -3, i32 -1, i32 -2, i32 -1, i32 -4], [24 x i32] [i32 -2, i32 0, i32 1, i32 -1, i32 -3, i32 0, i32 0, i32 -2, i32 8, i32 -3, i32 -3, i32 -1, i32 -2, i32 -1, i32 -2, i32 -1, i32 -2, i32 -2, i32 2, i32 -3, i32 0, i32 0, i32 -1, i32 -4], [24 x i32] [i32 -1, i32 -3, i32 -3, i32 -3, i32 -1, i32 -3, i32 -3, i32 -4, i32 -3, i32 4, i32 2, i32 -3, i32 1, i32 0, i32 -3, i32 -2, i32 -1, i32 -3, i32 -1, i32 3, i32 -3, i32 -3, i32 -1, i32 -4], [24 x i32] [i32 -1, i32 -2, i32 -3, i32 -4, i32 -1, i32 -2, i32 -3, i32 -4, i32 -3, i32 2, i32 4, i32 -2, i32 2, i32 0, i32 -3, i32 -2, i32 -1, i32 -2, i32 -1, i32 1, i32 -4, i32 -3, i32 -1, i32 -4], [24 x i32] [i32 -1, i32 2, i32 0, i32 -1, i32 -3, i32 1, i32 1, i32 -2, i32 -1, i32 -3, i32 -2, i32 5, i32 -1, i32 -3, i32 -1, i32 0, i32 -1, i32 -3, i32 -2, i32 -2, i32 0, i32 1, i32 -1, i32 -4], [24 x i32] [i32 -1, i32 -1, i32 -2, i32 -3, i32 -1, i32 0, i32 -2, i32 -3, i32 -2, i32 1, i32 2, i32 -1, i32 5, i32 0, i32 -2, i32 -1, i32 -1, i32 -1, i32 -1, i32 1, i32 -3, i32 -1, i32 -1, i32 -4], [24 x i32] [i32 -2, i32 -3, i32 -3, i32 -3, i32 -2, i32 -3, i32 -3, i32 -3, i32 -1, i32 0, i32 0, i32 -3, i32 0, i32 6, i32 -4, i32 -2, i32 -2, i32 1, i32 3, i32 -1, i32 -3, i32 -3, i32 -1, i32 -4], [24 x i32] [i32 -1, i32 -2, i32 -2, i32 -1, i32 -3, i32 -1, i32 -1, i32 -2, i32 -2, i32 -3, i32 -3, i32 -1, i32 -2, i32 -4, i32 7, i32 -1, i32 -1, i32 -4, i32 -3, i32 -2, i32 -2, i32 -1, i32 -2, i32 -4], [24 x i32] [i32 1, i32 -1, i32 1, i32 0, i32 -1, i32 0, i32 0, i32 0, i32 -1, i32 -2, i32 -2, i32 0, i32 -1, i32 -2, i32 -1, i32 4, i32 1, i32 -3, i32 -2, i32 -2, i32 0, i32 0, i32 0, i32 -4], [24 x i32] [i32 0, i32 -1, i32 0, i32 -1, i32 -1, i32 -1, i32 -1, i32 -2, i32 -2, i32 -1, i32 -1, i32 -1, i32 -1, i32 -2, i32 -1, i32 1, i32 5, i32 -2, i32 -2, i32 0, i32 -1, i32 -1, i32 0, i32 -4], [24 x i32] [i32 -3, i32 -3, i32 -4, i32 -4, i32 -2, i32 -2, i32 -3, i32 -2, i32 -2, i32 -3, i32 -2, i32 -3, i32 -1, i32 1, i32 -4, i32 -3, i32 -2, i32 11, i32 2, i32 -3, i32 -4, i32 -3, i32 -2, i32 -4], [24 x i32] [i32 -2, i32 -2, i32 -2, i32 -3, i32 -2, i32 -1, i32 -2, i32 -3, i32 2, i32 -1, i32 -1, i32 -2, i32 -1, i32 3, i32 -3, i32 -2, i32 -2, i32 2, i32 7, i32 -1, i32 -3, i32 -2, i32 -1, i32 -4], [24 x i32] [i32 0, i32 -3, i32 -3, i32 -3, i32 -1, i32 -2, i32 -2, i32 -3, i32 -3, i32 3, i32 1, i32 -2, i32 1, i32 -1, i32 -2, i32 -2, i32 0, i32 -3, i32 -1, i32 4, i32 -3, i32 -2, i32 -1, i32 -4], [24 x i32] [i32 -2, i32 -1, i32 3, i32 4, i32 -3, i32 0, i32 1, i32 -1, i32 0, i32 -3, i32 -4, i32 0, i32 -3, i32 -3, i32 -2, i32 0, i32 -1, i32 -4, i32 -3, i32 -3, i32 4, i32 1, i32 -1, i32 -4], [24 x i32] [i32 -1, i32 0, i32 0, i32 1, i32 -3, i32 3, i32 4, i32 -2, i32 0, i32 -3, i32 -3, i32 1, i32 -1, i32 -3, i32 -1, i32 0, i32 -1, i32 -3, i32 -2, i32 -2, i32 1, i32 4, i32 -1, i32 -4], [24 x i32] [i32 0, i32 -1, i32 -1, i32 -1, i32 -2, i32 -1, i32 -1, i32 -1, i32 -1, i32 -1, i32 -1, i32 -1, i32 -1, i32 -1, i32 -2, i32 0, i32 0, i32 -2, i32 -1, i32 -1, i32 -1, i32 -1, i32 -1, i32 -4], [24 x i32] [i32 -4, i32 -4, i32 -4, i32 -4, i32 -4, i32 -4, i32 -4, i32 -4, i32 -4, i32 -4, i32 -4, i32 -4, i32 -4, i32 -4, i32 -4, i32 -4, i32 -4, i32 -4, i32 -4, i32 -4, i32 -4, i32 -4, i32 -4, i32 1]], align 16
@stderr = external global %struct._IO_FILE*
@.str = private unnamed_addr constant [55 x i8] c"Usage: %s <max_rows/max_cols> <penalty> <num_threads>\0A\00", align 1
@.str1 = private unnamed_addr constant [40 x i8] c"\09<dimension>      - x and y dimensions\0A\00", align 1
@.str2 = private unnamed_addr constant [47 x i8] c"\09<penalty>        - penalty(positive integer)\0A\00", align 1
@.str3 = private unnamed_addr constant [36 x i8] c"\09<num_threads>    - no. of threads\0A\00", align 1
@.str4 = private unnamed_addr constant [32 x i8] c"Processing bottom-right matrix\0A\00", align 1
@.str5 = private unnamed_addr constant [31 x i8] c"error: can not allocate memory\00", align 1
@.str6 = private unnamed_addr constant [24 x i8] c"Start Needleman-Wunsch\0A\00", align 1
@.str7 = private unnamed_addr constant [20 x i8] c"Num of threads: %d\0A\00", align 1
@.str8 = private unnamed_addr constant [28 x i8] c"Processing top-left matrix\0A\00", align 1
@.str9 = private unnamed_addr constant [26 x i8] c"Total time: %.3f seconds\0A\00", align 1
@.str10 = private unnamed_addr constant [11 x i8] c"result.txt\00", align 1
@.str11 = private unnamed_addr constant [2 x i8] c"w\00", align 1
@.str12 = private unnamed_addr constant [28 x i8] c"print traceback value GPU:\0A\00", align 1
@.str13 = private unnamed_addr constant [4 x i8] c"%d \00", align 1
@.str14 = private unnamed_addr constant [59 x i8] c"**********************SDC DETECTED!**********************\0A\00", align 1

; Function Attrs: nounwind uwtable
define i64 @_Z8get_timev() #0 {
  %tv = alloca %struct.timeval, align 8, !llfi_index !1
  %1 = call i32 @gettimeofday(%struct.timeval* %tv, %struct.timezone* null) #6, !llfi_index !2
  %2 = getelementptr inbounds %struct.timeval* %tv, i32 0, i32 0, !llfi_index !3
  %3 = getelementptr inbounds %struct.timeval* %tv, i32 0, i32 0, !llfi_index !3
  %4 = load i64* %2, align 8, !llfi_index !4
  %5 = load i64* %3, align 8, !llfi_index !4
  %6 = mul nsw i64 %4, 1000000, !llfi_index !5
  %7 = mul nsw i64 %5, 1000000, !llfi_index !5
  %8 = getelementptr inbounds %struct.timeval* %tv, i32 0, i32 1, !llfi_index !6
  %9 = getelementptr inbounds %struct.timeval* %tv, i32 0, i32 1, !llfi_index !6
  %10 = load i64* %8, align 8, !llfi_index !7
  %11 = load i64* %9, align 8, !llfi_index !7
  %AI = alloca i1
  store i1 true, i1* %AI
  %12 = add nsw i64 %6, %10, !llfi_index !8
  %13 = add nsw i64 %7, %11, !llfi_index !8
  %check_cmp = icmp eq i64 %12, %13
  %loadone = load i1* %AI
  %check_and = and i1 %check_cmp, %loadone
  store i1 %check_and, i1* %AI
  br i1 %check_and, label %14, label %checkBb

checkBb:                                          ; preds = %0
  call void @check_flag()
  br label %14

; <label>:14                                      ; preds = %checkBb, %0
  ret i64 %12, !llfi_index !9
}

; Function Attrs: nounwind
declare i32 @gettimeofday(%struct.timeval*, %struct.timezone*) #1

; Function Attrs: nounwind uwtable
define i32 @_Z7maximumiii(i32 %a, i32 %b, i32 %c) #0 {
  %1 = alloca i32, align 4, !llfi_index !10
  %2 = alloca i32, align 4, !llfi_index !11
  %3 = alloca i32, align 4, !llfi_index !12
  %4 = alloca i32, align 4, !llfi_index !13
  %k = alloca i32, align 4, !llfi_index !14
  store i32 %a, i32* %2, align 4, !llfi_index !15
  store i32 %b, i32* %3, align 4, !llfi_index !16
  store i32 %c, i32* %4, align 4, !llfi_index !17
  %5 = load i32* %2, align 4, !llfi_index !18
  %6 = load i32* %2, align 4, !llfi_index !18
  %7 = load i32* %3, align 4, !llfi_index !19
  %8 = load i32* %3, align 4, !llfi_index !19
  %AI = alloca i1
  store i1 true, i1* %AI
  %9 = icmp sle i32 %5, %7, !llfi_index !20
  %10 = icmp sle i32 %6, %8, !llfi_index !20
  %check_cmp = icmp eq i1 %9, %10
  %loadone = load i1* %AI
  %check_and = and i1 %check_cmp, %loadone
  store i1 %check_and, i1* %AI
  br i1 %9, label %11, label %14, !llfi_index !21

; <label>:11                                      ; preds = %0
  %12 = load i32* %3, align 4, !llfi_index !22
  %13 = load i32* %3, align 4, !llfi_index !22
  %check_cmp1 = icmp eq i32 %12, %13
  %loadone2 = load i1* %AI
  %check_and3 = and i1 %check_cmp1, %loadone2
  store i1 %check_and3, i1* %AI
  store i32 %12, i32* %k, align 4, !llfi_index !23
  br label %17, !llfi_index !24

; <label>:14                                      ; preds = %0
  %15 = load i32* %2, align 4, !llfi_index !25
  %16 = load i32* %2, align 4, !llfi_index !25
  %check_cmp4 = icmp eq i32 %15, %16
  %loadone5 = load i1* %AI
  %check_and6 = and i1 %check_cmp4, %loadone5
  store i1 %check_and6, i1* %AI
  store i32 %15, i32* %k, align 4, !llfi_index !26
  br label %17, !llfi_index !27

; <label>:17                                      ; preds = %14, %11
  %18 = load i32* %k, align 4, !llfi_index !28
  %19 = load i32* %k, align 4, !llfi_index !28
  %20 = load i32* %4, align 4, !llfi_index !29
  %21 = load i32* %4, align 4, !llfi_index !29
  %22 = icmp sle i32 %18, %20, !llfi_index !30
  %23 = icmp sle i32 %19, %21, !llfi_index !30
  %check_cmp7 = icmp eq i1 %22, %23
  %loadone8 = load i1* %AI
  %check_and9 = and i1 %check_cmp7, %loadone8
  store i1 %check_and9, i1* %AI
  br i1 %22, label %24, label %27, !llfi_index !31

; <label>:24                                      ; preds = %17
  %25 = load i32* %4, align 4, !llfi_index !32
  %26 = load i32* %4, align 4, !llfi_index !32
  %check_cmp10 = icmp eq i32 %25, %26
  %loadone11 = load i1* %AI
  %check_and12 = and i1 %check_cmp10, %loadone11
  store i1 %check_and12, i1* %AI
  store i32 %25, i32* %1, !llfi_index !33
  br label %30, !llfi_index !34

; <label>:27                                      ; preds = %17
  %28 = load i32* %k, align 4, !llfi_index !35
  %29 = load i32* %k, align 4, !llfi_index !35
  %check_cmp13 = icmp eq i32 %28, %29
  %loadone14 = load i1* %AI
  %check_and15 = and i1 %check_cmp13, %loadone14
  store i1 %check_and15, i1* %AI
  store i32 %28, i32* %1, !llfi_index !36
  br label %30, !llfi_index !37

; <label>:30                                      ; preds = %27, %24
  %31 = load i32* %1, !llfi_index !38
  %32 = load i32* %1, !llfi_index !38
  %check_cmp16 = icmp eq i32 %31, %32
  %loadone17 = load i1* %AI
  %check_and18 = and i1 %check_cmp16, %loadone17
  store i1 %check_and18, i1* %AI
  br i1 %check_and18, label %33, label %checkBb

checkBb:                                          ; preds = %30
  call void @check_flag()
  br label %33

; <label>:33                                      ; preds = %checkBb, %30
  ret i32 %31, !llfi_index !39
}

; Function Attrs: nounwind uwtable
define double @_Z7gettimev() #0 {
  %t = alloca %struct.timeval, align 8, !llfi_index !40
  %1 = call i32 @gettimeofday(%struct.timeval* %t, %struct.timezone* null) #6, !llfi_index !41
  %2 = getelementptr inbounds %struct.timeval* %t, i32 0, i32 0, !llfi_index !42
  %3 = getelementptr inbounds %struct.timeval* %t, i32 0, i32 0, !llfi_index !42
  %4 = load i64* %2, align 8, !llfi_index !43
  %5 = load i64* %3, align 8, !llfi_index !43
  %6 = sitofp i64 %4 to double, !llfi_index !44
  %7 = sitofp i64 %5 to double, !llfi_index !44
  %8 = getelementptr inbounds %struct.timeval* %t, i32 0, i32 1, !llfi_index !45
  %9 = getelementptr inbounds %struct.timeval* %t, i32 0, i32 1, !llfi_index !45
  %10 = load i64* %8, align 8, !llfi_index !46
  %11 = load i64* %9, align 8, !llfi_index !46
  %12 = sitofp i64 %10 to double, !llfi_index !47
  %13 = sitofp i64 %11 to double, !llfi_index !47
  %14 = fmul double %12, 1.000000e-06, !llfi_index !48
  %15 = fmul double %13, 1.000000e-06, !llfi_index !48
  %AI = alloca i1
  store i1 true, i1* %AI
  %16 = fadd double %6, %14, !llfi_index !49
  %17 = fadd double %7, %15, !llfi_index !49
  %check_cmp = fcmp ueq double %16, %17
  %loadone = load i1* %AI
  %check_and = and i1 %check_cmp, %loadone
  store i1 %check_and, i1* %AI
  br i1 %check_and, label %18, label %checkBb

checkBb:                                          ; preds = %0
  call void @check_flag()
  br label %18

; <label>:18                                      ; preds = %checkBb, %0
  ret double %16, !llfi_index !50
}

; Function Attrs: uwtable
define i32 @main(i32 %argc, i8** %argv) #2 {
  %1 = alloca i32, align 4, !llfi_index !51
  %2 = alloca i32, align 4, !llfi_index !52
  %3 = alloca i8**, align 8, !llfi_index !53
  store i32 0, i32* %1, !llfi_index !54
  store i32 %argc, i32* %2, align 4, !llfi_index !55
  store i8** %argv, i8*** %3, align 8, !llfi_index !56
  %AI = alloca i1
  store i1 true, i1* %AI
  %4 = load i32* %2, align 4, !llfi_index !57
  %5 = load i32* %2, align 4, !llfi_index !57
  %check_cmp = icmp eq i32 %4, %5
  %loadone = load i1* %AI
  %check_and = and i1 %check_cmp, %loadone
  %6 = load i8*** %3, align 8, !llfi_index !58
  %7 = load i8*** %3, align 8, !llfi_index !58
  %check_cmp1 = icmp eq i8** %6, %7
  %check_and2 = and i1 %check_cmp1, %check_and
  store i1 %check_and2, i1* %AI
  br i1 %check_and2, label %8, label %checkBb

checkBb:                                          ; preds = %0
  call void @check_flag()
  br label %8

; <label>:8                                       ; preds = %checkBb, %0
  call void @_Z7runTestiPPc(i32 %4, i8** %6), !llfi_index !59
  ret i32 0, !llfi_index !60
}

; Function Attrs: uwtable
define void @_Z7runTestiPPc(i32 %argc, i8** %argv) #2 {
  %1 = alloca i32, align 4, !llfi_index !61
  %2 = alloca i8**, align 8, !llfi_index !62
  %max_rows = alloca i32, align 4, !llfi_index !63
  %max_cols = alloca i32, align 4, !llfi_index !64
  %penalty = alloca i32, align 4, !llfi_index !65
  %input_itemsets = alloca i32*, align 8, !llfi_index !66
  %output_itemsets = alloca i32*, align 8, !llfi_index !67
  %referrence = alloca i32*, align 8, !llfi_index !68
  %omp_num_threads = alloca i32, align 4, !llfi_index !69
  %i = alloca i32, align 4, !llfi_index !70
  %j = alloca i32, align 4, !llfi_index !71
  %i1 = alloca i32, align 4, !llfi_index !72
  %j2 = alloca i32, align 4, !llfi_index !73
  %i3 = alloca i32, align 4, !llfi_index !74
  %j4 = alloca i32, align 4, !llfi_index !75
  %i5 = alloca i32, align 4, !llfi_index !76
  %j6 = alloca i32, align 4, !llfi_index !77
  %start_time = alloca i64, align 8, !llfi_index !78
  %end_time = alloca i64, align 8, !llfi_index !79
  %fpo = alloca %struct._IO_FILE*, align 8, !llfi_index !80
  %i7 = alloca i32, align 4, !llfi_index !81
  %j8 = alloca i32, align 4, !llfi_index !82
  %nw = alloca i32, align 4, !llfi_index !83
  %n = alloca i32, align 4, !llfi_index !84
  %w = alloca i32, align 4, !llfi_index !85
  %traceback = alloca i32, align 4, !llfi_index !86
  %new_nw = alloca i32, align 4, !llfi_index !87
  %new_w = alloca i32, align 4, !llfi_index !88
  %new_n = alloca i32, align 4, !llfi_index !89
  store i32 %argc, i32* %1, align 4, !llfi_index !90
  store i8** %argv, i8*** %2, align 8, !llfi_index !91
  %3 = load i32* %1, align 4, !llfi_index !92
  %4 = load i32* %1, align 4, !llfi_index !92
  %AI = alloca i1
  store i1 true, i1* %AI
  %5 = icmp eq i32 %3, 4, !llfi_index !93
  %6 = icmp eq i32 %4, 4, !llfi_index !93
  %check_cmp = icmp eq i1 %5, %6
  %loadone = load i1* %AI
  %check_and = and i1 %check_cmp, %loadone
  store i1 %check_and, i1* %AI
  br i1 %5, label %7, label %36, !llfi_index !94

; <label>:7                                       ; preds = %0
  %8 = load i8*** %2, align 8, !llfi_index !95
  %9 = load i8*** %2, align 8, !llfi_index !95
  %10 = getelementptr inbounds i8** %8, i64 1, !llfi_index !96
  %11 = getelementptr inbounds i8** %9, i64 1, !llfi_index !96
  %12 = load i8** %10, align 8, !llfi_index !97
  %13 = load i8** %11, align 8, !llfi_index !97
  %check_cmp1 = icmp eq i8* %12, %13
  %loadone2 = load i1* %AI
  %check_and3 = and i1 %check_cmp1, %loadone2
  %14 = call i32 @atoi(i8* %12) #7, !llfi_index !98
  store i32 %14, i32* %max_rows, align 4, !llfi_index !99
  %15 = load i8*** %2, align 8, !llfi_index !100
  %16 = load i8*** %2, align 8, !llfi_index !100
  %17 = getelementptr inbounds i8** %15, i64 1, !llfi_index !101
  %18 = getelementptr inbounds i8** %16, i64 1, !llfi_index !101
  %19 = load i8** %17, align 8, !llfi_index !102
  %20 = load i8** %18, align 8, !llfi_index !102
  %check_cmp4 = icmp eq i8* %19, %20
  %check_and5 = and i1 %check_cmp4, %check_and3
  %21 = call i32 @atoi(i8* %19) #7, !llfi_index !103
  store i32 %21, i32* %max_cols, align 4, !llfi_index !104
  %22 = load i8*** %2, align 8, !llfi_index !105
  %23 = load i8*** %2, align 8, !llfi_index !105
  %24 = getelementptr inbounds i8** %22, i64 2, !llfi_index !106
  %25 = getelementptr inbounds i8** %23, i64 2, !llfi_index !106
  %26 = load i8** %24, align 8, !llfi_index !107
  %27 = load i8** %25, align 8, !llfi_index !107
  %check_cmp6 = icmp eq i8* %26, %27
  %check_and7 = and i1 %check_cmp6, %check_and5
  %28 = call i32 @atoi(i8* %26) #7, !llfi_index !108
  store i32 %28, i32* %penalty, align 4, !llfi_index !109
  %29 = load i8*** %2, align 8, !llfi_index !110
  %30 = load i8*** %2, align 8, !llfi_index !110
  %31 = getelementptr inbounds i8** %29, i64 3, !llfi_index !111
  %32 = getelementptr inbounds i8** %30, i64 3, !llfi_index !111
  %33 = load i8** %31, align 8, !llfi_index !112
  %34 = load i8** %32, align 8, !llfi_index !112
  %check_cmp8 = icmp eq i8* %33, %34
  %check_and9 = and i1 %check_cmp8, %check_and7
  store i1 %check_and9, i1* %AI
  %35 = call i32 @atoi(i8* %33) #7, !llfi_index !113
  store i32 %35, i32* %omp_num_threads, align 4, !llfi_index !114
  br label %41, !llfi_index !115

; <label>:36                                      ; preds = %0
  %37 = load i32* %1, align 4, !llfi_index !116
  %38 = load i32* %1, align 4, !llfi_index !116
  %check_cmp10 = icmp eq i32 %37, %38
  %loadone11 = load i1* %AI
  %check_and12 = and i1 %check_cmp10, %loadone11
  %39 = load i8*** %2, align 8, !llfi_index !117
  %40 = load i8*** %2, align 8, !llfi_index !117
  %check_cmp13 = icmp eq i8** %39, %40
  %check_and14 = and i1 %check_cmp13, %check_and12
  store i1 %check_and14, i1* %AI
  call void @_Z5usageiPPc(i32 %37, i8** %39), !llfi_index !118
  br label %41, !llfi_index !119

; <label>:41                                      ; preds = %36, %7
  %42 = load i32* %max_rows, align 4, !llfi_index !120
  %43 = load i32* %max_rows, align 4, !llfi_index !120
  %44 = add nsw i32 %42, 1, !llfi_index !121
  %45 = add nsw i32 %43, 1, !llfi_index !121
  %check_cmp15 = icmp eq i32 %44, %45
  %loadone16 = load i1* %AI
  %check_and17 = and i1 %check_cmp15, %loadone16
  store i32 %44, i32* %max_rows, align 4, !llfi_index !122
  %46 = load i32* %max_cols, align 4, !llfi_index !123
  %47 = load i32* %max_cols, align 4, !llfi_index !123
  %48 = add nsw i32 %46, 1, !llfi_index !124
  %49 = add nsw i32 %47, 1, !llfi_index !124
  %check_cmp18 = icmp eq i32 %48, %49
  %check_and19 = and i1 %check_cmp18, %check_and17
  store i32 %48, i32* %max_cols, align 4, !llfi_index !125
  %50 = load i32* %max_rows, align 4, !llfi_index !126
  %51 = load i32* %max_rows, align 4, !llfi_index !126
  %52 = load i32* %max_cols, align 4, !llfi_index !127
  %53 = load i32* %max_cols, align 4, !llfi_index !127
  %54 = mul nsw i32 %50, %52, !llfi_index !128
  %55 = mul nsw i32 %51, %53, !llfi_index !128
  %56 = sext i32 %54 to i64, !llfi_index !129
  %57 = sext i32 %55 to i64, !llfi_index !129
  %58 = mul i64 %56, 4, !llfi_index !130
  %59 = mul i64 %57, 4, !llfi_index !130
  %check_cmp20 = icmp eq i64 %58, %59
  %check_and21 = and i1 %check_cmp20, %check_and19
  %60 = call noalias i8* @malloc(i64 %58) #6, !llfi_index !131
  %61 = bitcast i8* %60 to i32*, !llfi_index !132
  %62 = bitcast i8* %60 to i32*, !llfi_index !132
  %check_cmp22 = icmp eq i32* %61, %62
  %check_and23 = and i1 %check_cmp22, %check_and21
  store i32* %61, i32** %referrence, align 8, !llfi_index !133
  %63 = load i32* %max_rows, align 4, !llfi_index !134
  %64 = load i32* %max_rows, align 4, !llfi_index !134
  %65 = load i32* %max_cols, align 4, !llfi_index !135
  %66 = load i32* %max_cols, align 4, !llfi_index !135
  %67 = mul nsw i32 %63, %65, !llfi_index !136
  %68 = mul nsw i32 %64, %66, !llfi_index !136
  %69 = sext i32 %67 to i64, !llfi_index !137
  %70 = sext i32 %68 to i64, !llfi_index !137
  %71 = mul i64 %69, 4, !llfi_index !138
  %72 = mul i64 %70, 4, !llfi_index !138
  %check_cmp24 = icmp eq i64 %71, %72
  %check_and25 = and i1 %check_cmp24, %check_and23
  %73 = call noalias i8* @malloc(i64 %71) #6, !llfi_index !139
  %74 = bitcast i8* %73 to i32*, !llfi_index !140
  %75 = bitcast i8* %73 to i32*, !llfi_index !140
  %check_cmp26 = icmp eq i32* %74, %75
  %check_and27 = and i1 %check_cmp26, %check_and25
  store i32* %74, i32** %input_itemsets, align 8, !llfi_index !141
  %76 = load i32* %max_rows, align 4, !llfi_index !142
  %77 = load i32* %max_rows, align 4, !llfi_index !142
  %78 = load i32* %max_cols, align 4, !llfi_index !143
  %79 = load i32* %max_cols, align 4, !llfi_index !143
  %80 = mul nsw i32 %76, %78, !llfi_index !144
  %81 = mul nsw i32 %77, %79, !llfi_index !144
  %82 = sext i32 %80 to i64, !llfi_index !145
  %83 = sext i32 %81 to i64, !llfi_index !145
  %84 = mul i64 %82, 4, !llfi_index !146
  %85 = mul i64 %83, 4, !llfi_index !146
  %check_cmp28 = icmp eq i64 %84, %85
  %check_and29 = and i1 %check_cmp28, %check_and27
  %86 = call noalias i8* @malloc(i64 %84) #6, !llfi_index !147
  %87 = bitcast i8* %86 to i32*, !llfi_index !148
  %88 = bitcast i8* %86 to i32*, !llfi_index !148
  %check_cmp30 = icmp eq i32* %87, %88
  %check_and31 = and i1 %check_cmp30, %check_and29
  store i32* %87, i32** %output_itemsets, align 8, !llfi_index !149
  %89 = load i32** %input_itemsets, align 8, !llfi_index !150
  %90 = load i32** %input_itemsets, align 8, !llfi_index !150
  %91 = icmp ne i32* %89, null, !llfi_index !151
  %92 = icmp ne i32* %90, null, !llfi_index !151
  %check_cmp32 = icmp eq i1 %91, %92
  %check_and33 = and i1 %check_cmp32, %check_and31
  store i1 %check_and33, i1* %AI
  br i1 %91, label %97, label %93, !llfi_index !152

; <label>:93                                      ; preds = %41
  %94 = load %struct._IO_FILE** @stderr, align 8, !llfi_index !153
  %95 = load %struct._IO_FILE** @stderr, align 8, !llfi_index !153
  %check_cmp34 = icmp eq %struct._IO_FILE* %94, %95
  %loadone35 = load i1* %AI
  %check_and36 = and i1 %check_cmp34, %loadone35
  store i1 %check_and36, i1* %AI
  %96 = call i32 (%struct._IO_FILE*, i8*, ...)* @fprintf(%struct._IO_FILE* %94, i8* getelementptr inbounds ([31 x i8]* @.str5, i32 0, i32 0)), !llfi_index !154
  br label %97, !llfi_index !155

; <label>:97                                      ; preds = %93, %41
  store i32 0, i32* %i, align 4, !llfi_index !156
  br label %98, !llfi_index !157

; <label>:98                                      ; preds = %136, %97
  %99 = load i32* %i, align 4, !llfi_index !158
  %100 = load i32* %i, align 4, !llfi_index !158
  %101 = load i32* %max_cols, align 4, !llfi_index !159
  %102 = load i32* %max_cols, align 4, !llfi_index !159
  %103 = icmp slt i32 %99, %101, !llfi_index !160
  %104 = icmp slt i32 %100, %102, !llfi_index !160
  %check_cmp37 = icmp eq i1 %103, %104
  %loadone38 = load i1* %AI
  %check_and39 = and i1 %check_cmp37, %loadone38
  store i1 %check_and39, i1* %AI
  br i1 %103, label %105, label %141, !llfi_index !161

; <label>:105                                     ; preds = %98
  store i32 0, i32* %j, align 4, !llfi_index !162
  br label %106, !llfi_index !163

; <label>:106                                     ; preds = %130, %105
  %107 = load i32* %j, align 4, !llfi_index !164
  %108 = load i32* %j, align 4, !llfi_index !164
  %109 = load i32* %max_rows, align 4, !llfi_index !165
  %110 = load i32* %max_rows, align 4, !llfi_index !165
  %111 = icmp slt i32 %107, %109, !llfi_index !166
  %112 = icmp slt i32 %108, %110, !llfi_index !166
  %check_cmp40 = icmp eq i1 %111, %112
  %loadone41 = load i1* %AI
  %check_and42 = and i1 %check_cmp40, %loadone41
  store i1 %check_and42, i1* %AI
  br i1 %111, label %113, label %135, !llfi_index !167

; <label>:113                                     ; preds = %106
  %114 = load i32* %i, align 4, !llfi_index !168
  %115 = load i32* %i, align 4, !llfi_index !168
  %116 = load i32* %max_cols, align 4, !llfi_index !169
  %117 = load i32* %max_cols, align 4, !llfi_index !169
  %118 = mul nsw i32 %114, %116, !llfi_index !170
  %119 = mul nsw i32 %115, %117, !llfi_index !170
  %120 = load i32* %j, align 4, !llfi_index !171
  %121 = load i32* %j, align 4, !llfi_index !171
  %122 = add nsw i32 %118, %120, !llfi_index !172
  %123 = add nsw i32 %119, %121, !llfi_index !172
  %124 = sext i32 %122 to i64, !llfi_index !173
  %125 = sext i32 %123 to i64, !llfi_index !173
  %126 = load i32** %input_itemsets, align 8, !llfi_index !174
  %127 = load i32** %input_itemsets, align 8, !llfi_index !174
  %128 = getelementptr inbounds i32* %126, i64 %124, !llfi_index !175
  %129 = getelementptr inbounds i32* %127, i64 %125, !llfi_index !175
  %check_cmp43 = icmp eq i32* %128, %129
  %loadone44 = load i1* %AI
  %check_and45 = and i1 %check_cmp43, %loadone44
  store i1 %check_and45, i1* %AI
  store i32 0, i32* %128, align 4, !llfi_index !176
  br label %130, !llfi_index !177

; <label>:130                                     ; preds = %113
  %131 = load i32* %j, align 4, !llfi_index !178
  %132 = load i32* %j, align 4, !llfi_index !178
  %133 = add nsw i32 %131, 1, !llfi_index !179
  %134 = add nsw i32 %132, 1, !llfi_index !179
  %check_cmp46 = icmp eq i32 %133, %134
  %loadone47 = load i1* %AI
  %check_and48 = and i1 %check_cmp46, %loadone47
  store i1 %check_and48, i1* %AI
  store i32 %133, i32* %j, align 4, !llfi_index !180
  br label %106, !llfi_index !181

; <label>:135                                     ; preds = %106
  br label %136, !llfi_index !182

; <label>:136                                     ; preds = %135
  %137 = load i32* %i, align 4, !llfi_index !183
  %138 = load i32* %i, align 4, !llfi_index !183
  %139 = add nsw i32 %137, 1, !llfi_index !184
  %140 = add nsw i32 %138, 1, !llfi_index !184
  %check_cmp49 = icmp eq i32 %139, %140
  %loadone50 = load i1* %AI
  %check_and51 = and i1 %check_cmp49, %loadone50
  store i1 %check_and51, i1* %AI
  store i32 %139, i32* %i, align 4, !llfi_index !185
  br label %98, !llfi_index !186

; <label>:141                                     ; preds = %98
  %142 = call i32 (i8*, ...)* @printf(i8* getelementptr inbounds ([24 x i8]* @.str6, i32 0, i32 0)), !llfi_index !187
  store i32 1, i32* %i1, align 4, !llfi_index !188
  br label %143, !llfi_index !189

; <label>:143                                     ; preds = %163, %141
  %144 = load i32* %i1, align 4, !llfi_index !190
  %145 = load i32* %i1, align 4, !llfi_index !190
  %146 = load i32* %max_rows, align 4, !llfi_index !191
  %147 = load i32* %max_rows, align 4, !llfi_index !191
  %148 = icmp slt i32 %144, %146, !llfi_index !192
  %149 = icmp slt i32 %145, %147, !llfi_index !192
  %check_cmp52 = icmp eq i1 %148, %149
  %loadone53 = load i1* %AI
  %check_and54 = and i1 %check_cmp52, %loadone53
  store i1 %check_and54, i1* %AI
  br i1 %148, label %150, label %168, !llfi_index !193

; <label>:150                                     ; preds = %143
  %151 = load i32* %i1, align 4, !llfi_index !194
  %152 = load i32* %i1, align 4, !llfi_index !194
  %153 = load i32* %max_cols, align 4, !llfi_index !195
  %154 = load i32* %max_cols, align 4, !llfi_index !195
  %155 = mul nsw i32 %151, %153, !llfi_index !196
  %156 = mul nsw i32 %152, %154, !llfi_index !196
  %157 = sext i32 %155 to i64, !llfi_index !197
  %158 = sext i32 %156 to i64, !llfi_index !197
  %159 = load i32** %input_itemsets, align 8, !llfi_index !198
  %160 = load i32** %input_itemsets, align 8, !llfi_index !198
  %161 = getelementptr inbounds i32* %159, i64 %157, !llfi_index !199
  %162 = getelementptr inbounds i32* %160, i64 %158, !llfi_index !199
  %check_cmp55 = icmp eq i32* %161, %162
  %loadone56 = load i1* %AI
  %check_and57 = and i1 %check_cmp55, %loadone56
  store i1 %check_and57, i1* %AI
  store i32 7, i32* %161, align 4, !llfi_index !200
  br label %163, !llfi_index !201

; <label>:163                                     ; preds = %150
  %164 = load i32* %i1, align 4, !llfi_index !202
  %165 = load i32* %i1, align 4, !llfi_index !202
  %166 = add nsw i32 %164, 1, !llfi_index !203
  %167 = add nsw i32 %165, 1, !llfi_index !203
  %check_cmp58 = icmp eq i32 %166, %167
  %loadone59 = load i1* %AI
  %check_and60 = and i1 %check_cmp58, %loadone59
  store i1 %check_and60, i1* %AI
  store i32 %166, i32* %i1, align 4, !llfi_index !204
  br label %143, !llfi_index !205

; <label>:168                                     ; preds = %143
  store i32 1, i32* %j2, align 4, !llfi_index !206
  br label %169, !llfi_index !207

; <label>:169                                     ; preds = %185, %168
  %170 = load i32* %j2, align 4, !llfi_index !208
  %171 = load i32* %j2, align 4, !llfi_index !208
  %172 = load i32* %max_cols, align 4, !llfi_index !209
  %173 = load i32* %max_cols, align 4, !llfi_index !209
  %174 = icmp slt i32 %170, %172, !llfi_index !210
  %175 = icmp slt i32 %171, %173, !llfi_index !210
  %check_cmp61 = icmp eq i1 %174, %175
  %loadone62 = load i1* %AI
  %check_and63 = and i1 %check_cmp61, %loadone62
  store i1 %check_and63, i1* %AI
  br i1 %174, label %176, label %190, !llfi_index !211

; <label>:176                                     ; preds = %169
  %177 = load i32* %j2, align 4, !llfi_index !212
  %178 = load i32* %j2, align 4, !llfi_index !212
  %179 = sext i32 %177 to i64, !llfi_index !213
  %180 = sext i32 %178 to i64, !llfi_index !213
  %181 = load i32** %input_itemsets, align 8, !llfi_index !214
  %182 = load i32** %input_itemsets, align 8, !llfi_index !214
  %183 = getelementptr inbounds i32* %181, i64 %179, !llfi_index !215
  %184 = getelementptr inbounds i32* %182, i64 %180, !llfi_index !215
  %check_cmp64 = icmp eq i32* %183, %184
  %loadone65 = load i1* %AI
  %check_and66 = and i1 %check_cmp64, %loadone65
  store i1 %check_and66, i1* %AI
  store i32 5, i32* %183, align 4, !llfi_index !216
  br label %185, !llfi_index !217

; <label>:185                                     ; preds = %176
  %186 = load i32* %j2, align 4, !llfi_index !218
  %187 = load i32* %j2, align 4, !llfi_index !218
  %188 = add nsw i32 %186, 1, !llfi_index !219
  %189 = add nsw i32 %187, 1, !llfi_index !219
  %check_cmp67 = icmp eq i32 %188, %189
  %loadone68 = load i1* %AI
  %check_and69 = and i1 %check_cmp67, %loadone68
  store i1 %check_and69, i1* %AI
  store i32 %188, i32* %j2, align 4, !llfi_index !220
  br label %169, !llfi_index !221

; <label>:190                                     ; preds = %169
  store i32 1, i32* %i3, align 4, !llfi_index !222
  br label %191, !llfi_index !223

; <label>:191                                     ; preds = %263, %190
  %192 = load i32* %i3, align 4, !llfi_index !224
  %193 = load i32* %i3, align 4, !llfi_index !224
  %194 = load i32* %max_cols, align 4, !llfi_index !225
  %195 = load i32* %max_cols, align 4, !llfi_index !225
  %196 = icmp slt i32 %192, %194, !llfi_index !226
  %197 = icmp slt i32 %193, %195, !llfi_index !226
  %check_cmp70 = icmp eq i1 %196, %197
  %loadone71 = load i1* %AI
  %check_and72 = and i1 %check_cmp70, %loadone71
  store i1 %check_and72, i1* %AI
  br i1 %196, label %198, label %268, !llfi_index !227

; <label>:198                                     ; preds = %191
  store i32 1, i32* %j4, align 4, !llfi_index !228
  br label %199, !llfi_index !229

; <label>:199                                     ; preds = %257, %198
  %200 = load i32* %j4, align 4, !llfi_index !230
  %201 = load i32* %j4, align 4, !llfi_index !230
  %202 = load i32* %max_rows, align 4, !llfi_index !231
  %203 = load i32* %max_rows, align 4, !llfi_index !231
  %204 = icmp slt i32 %200, %202, !llfi_index !232
  %205 = icmp slt i32 %201, %203, !llfi_index !232
  %check_cmp73 = icmp eq i1 %204, %205
  %loadone74 = load i1* %AI
  %check_and75 = and i1 %check_cmp73, %loadone74
  store i1 %check_and75, i1* %AI
  br i1 %204, label %206, label %262, !llfi_index !233

; <label>:206                                     ; preds = %199
  %207 = load i32* %j4, align 4, !llfi_index !234
  %208 = load i32* %j4, align 4, !llfi_index !234
  %209 = sext i32 %207 to i64, !llfi_index !235
  %210 = sext i32 %208 to i64, !llfi_index !235
  %211 = load i32** %input_itemsets, align 8, !llfi_index !236
  %212 = load i32** %input_itemsets, align 8, !llfi_index !236
  %213 = getelementptr inbounds i32* %211, i64 %209, !llfi_index !237
  %214 = getelementptr inbounds i32* %212, i64 %210, !llfi_index !237
  %215 = load i32* %213, align 4, !llfi_index !238
  %216 = load i32* %214, align 4, !llfi_index !238
  %217 = sext i32 %215 to i64, !llfi_index !239
  %218 = sext i32 %216 to i64, !llfi_index !239
  %219 = load i32* %i3, align 4, !llfi_index !240
  %220 = load i32* %i3, align 4, !llfi_index !240
  %221 = load i32* %max_cols, align 4, !llfi_index !241
  %222 = load i32* %max_cols, align 4, !llfi_index !241
  %223 = mul nsw i32 %219, %221, !llfi_index !242
  %224 = mul nsw i32 %220, %222, !llfi_index !242
  %225 = sext i32 %223 to i64, !llfi_index !243
  %226 = sext i32 %224 to i64, !llfi_index !243
  %227 = load i32** %input_itemsets, align 8, !llfi_index !244
  %228 = load i32** %input_itemsets, align 8, !llfi_index !244
  %229 = getelementptr inbounds i32* %227, i64 %225, !llfi_index !245
  %230 = getelementptr inbounds i32* %228, i64 %226, !llfi_index !245
  %231 = load i32* %229, align 4, !llfi_index !246
  %232 = load i32* %230, align 4, !llfi_index !246
  %233 = sext i32 %231 to i64, !llfi_index !247
  %234 = sext i32 %232 to i64, !llfi_index !247
  %235 = getelementptr inbounds [24 x [24 x i32]]* @blosum62, i32 0, i64 %233, !llfi_index !248
  %236 = getelementptr inbounds [24 x [24 x i32]]* @blosum62, i32 0, i64 %234, !llfi_index !248
  %237 = getelementptr inbounds [24 x i32]* %235, i32 0, i64 %217, !llfi_index !249
  %238 = getelementptr inbounds [24 x i32]* %236, i32 0, i64 %218, !llfi_index !249
  %239 = load i32* %237, align 4, !llfi_index !250
  %240 = load i32* %238, align 4, !llfi_index !250
  %check_cmp76 = icmp eq i32 %239, %240
  %loadone77 = load i1* %AI
  %check_and78 = and i1 %check_cmp76, %loadone77
  %241 = load i32* %i3, align 4, !llfi_index !251
  %242 = load i32* %i3, align 4, !llfi_index !251
  %243 = load i32* %max_cols, align 4, !llfi_index !252
  %244 = load i32* %max_cols, align 4, !llfi_index !252
  %245 = mul nsw i32 %241, %243, !llfi_index !253
  %246 = mul nsw i32 %242, %244, !llfi_index !253
  %247 = load i32* %j4, align 4, !llfi_index !254
  %248 = load i32* %j4, align 4, !llfi_index !254
  %249 = add nsw i32 %245, %247, !llfi_index !255
  %250 = add nsw i32 %246, %248, !llfi_index !255
  %251 = sext i32 %249 to i64, !llfi_index !256
  %252 = sext i32 %250 to i64, !llfi_index !256
  %253 = load i32** %referrence, align 8, !llfi_index !257
  %254 = load i32** %referrence, align 8, !llfi_index !257
  %255 = getelementptr inbounds i32* %253, i64 %251, !llfi_index !258
  %256 = getelementptr inbounds i32* %254, i64 %252, !llfi_index !258
  %check_cmp79 = icmp eq i32* %255, %256
  %check_and80 = and i1 %check_cmp79, %check_and78
  store i1 %check_and80, i1* %AI
  store i32 %239, i32* %255, align 4, !llfi_index !259
  br label %257, !llfi_index !260

; <label>:257                                     ; preds = %206
  %258 = load i32* %j4, align 4, !llfi_index !261
  %259 = load i32* %j4, align 4, !llfi_index !261
  %260 = add nsw i32 %258, 1, !llfi_index !262
  %261 = add nsw i32 %259, 1, !llfi_index !262
  %check_cmp81 = icmp eq i32 %260, %261
  %loadone82 = load i1* %AI
  %check_and83 = and i1 %check_cmp81, %loadone82
  store i1 %check_and83, i1* %AI
  store i32 %260, i32* %j4, align 4, !llfi_index !263
  br label %199, !llfi_index !264

; <label>:262                                     ; preds = %199
  br label %263, !llfi_index !265

; <label>:263                                     ; preds = %262
  %264 = load i32* %i3, align 4, !llfi_index !266
  %265 = load i32* %i3, align 4, !llfi_index !266
  %266 = add nsw i32 %264, 1, !llfi_index !267
  %267 = add nsw i32 %265, 1, !llfi_index !267
  %check_cmp84 = icmp eq i32 %266, %267
  %loadone85 = load i1* %AI
  %check_and86 = and i1 %check_cmp84, %loadone85
  store i1 %check_and86, i1* %AI
  store i32 %266, i32* %i3, align 4, !llfi_index !268
  br label %191, !llfi_index !269

; <label>:268                                     ; preds = %191
  store i32 1, i32* %i5, align 4, !llfi_index !270
  br label %269, !llfi_index !271

; <label>:269                                     ; preds = %297, %268
  %270 = load i32* %i5, align 4, !llfi_index !272
  %271 = load i32* %i5, align 4, !llfi_index !272
  %272 = load i32* %max_rows, align 4, !llfi_index !273
  %273 = load i32* %max_rows, align 4, !llfi_index !273
  %274 = icmp slt i32 %270, %272, !llfi_index !274
  %275 = icmp slt i32 %271, %273, !llfi_index !274
  %check_cmp87 = icmp eq i1 %274, %275
  %loadone88 = load i1* %AI
  %check_and89 = and i1 %check_cmp87, %loadone88
  store i1 %check_and89, i1* %AI
  br i1 %274, label %276, label %302, !llfi_index !275

; <label>:276                                     ; preds = %269
  %277 = load i32* %i5, align 4, !llfi_index !276
  %278 = load i32* %i5, align 4, !llfi_index !276
  %279 = sub nsw i32 0, %277, !llfi_index !277
  %280 = sub nsw i32 0, %278, !llfi_index !277
  %281 = load i32* %penalty, align 4, !llfi_index !278
  %282 = load i32* %penalty, align 4, !llfi_index !278
  %283 = mul nsw i32 %279, %281, !llfi_index !279
  %284 = mul nsw i32 %280, %282, !llfi_index !279
  %check_cmp90 = icmp eq i32 %283, %284
  %loadone91 = load i1* %AI
  %check_and92 = and i1 %check_cmp90, %loadone91
  %285 = load i32* %i5, align 4, !llfi_index !280
  %286 = load i32* %i5, align 4, !llfi_index !280
  %287 = load i32* %max_cols, align 4, !llfi_index !281
  %288 = load i32* %max_cols, align 4, !llfi_index !281
  %289 = mul nsw i32 %285, %287, !llfi_index !282
  %290 = mul nsw i32 %286, %288, !llfi_index !282
  %291 = sext i32 %289 to i64, !llfi_index !283
  %292 = sext i32 %290 to i64, !llfi_index !283
  %293 = load i32** %input_itemsets, align 8, !llfi_index !284
  %294 = load i32** %input_itemsets, align 8, !llfi_index !284
  %295 = getelementptr inbounds i32* %293, i64 %291, !llfi_index !285
  %296 = getelementptr inbounds i32* %294, i64 %292, !llfi_index !285
  %check_cmp93 = icmp eq i32* %295, %296
  %check_and94 = and i1 %check_cmp93, %check_and92
  store i1 %check_and94, i1* %AI
  store i32 %283, i32* %295, align 4, !llfi_index !286
  br label %297, !llfi_index !287

; <label>:297                                     ; preds = %276
  %298 = load i32* %i5, align 4, !llfi_index !288
  %299 = load i32* %i5, align 4, !llfi_index !288
  %300 = add nsw i32 %298, 1, !llfi_index !289
  %301 = add nsw i32 %299, 1, !llfi_index !289
  %check_cmp95 = icmp eq i32 %300, %301
  %loadone96 = load i1* %AI
  %check_and97 = and i1 %check_cmp95, %loadone96
  store i1 %check_and97, i1* %AI
  store i32 %300, i32* %i5, align 4, !llfi_index !290
  br label %269, !llfi_index !291

; <label>:302                                     ; preds = %269
  store i32 1, i32* %j6, align 4, !llfi_index !292
  br label %303, !llfi_index !293

; <label>:303                                     ; preds = %327, %302
  %304 = load i32* %j6, align 4, !llfi_index !294
  %305 = load i32* %j6, align 4, !llfi_index !294
  %306 = load i32* %max_cols, align 4, !llfi_index !295
  %307 = load i32* %max_cols, align 4, !llfi_index !295
  %308 = icmp slt i32 %304, %306, !llfi_index !296
  %309 = icmp slt i32 %305, %307, !llfi_index !296
  %check_cmp98 = icmp eq i1 %308, %309
  %loadone99 = load i1* %AI
  %check_and100 = and i1 %check_cmp98, %loadone99
  store i1 %check_and100, i1* %AI
  br i1 %308, label %310, label %332, !llfi_index !297

; <label>:310                                     ; preds = %303
  %311 = load i32* %j6, align 4, !llfi_index !298
  %312 = load i32* %j6, align 4, !llfi_index !298
  %313 = sub nsw i32 0, %311, !llfi_index !299
  %314 = sub nsw i32 0, %312, !llfi_index !299
  %315 = load i32* %penalty, align 4, !llfi_index !300
  %316 = load i32* %penalty, align 4, !llfi_index !300
  %317 = mul nsw i32 %313, %315, !llfi_index !301
  %318 = mul nsw i32 %314, %316, !llfi_index !301
  %check_cmp101 = icmp eq i32 %317, %318
  %loadone102 = load i1* %AI
  %check_and103 = and i1 %check_cmp101, %loadone102
  %319 = load i32* %j6, align 4, !llfi_index !302
  %320 = load i32* %j6, align 4, !llfi_index !302
  %321 = sext i32 %319 to i64, !llfi_index !303
  %322 = sext i32 %320 to i64, !llfi_index !303
  %323 = load i32** %input_itemsets, align 8, !llfi_index !304
  %324 = load i32** %input_itemsets, align 8, !llfi_index !304
  %325 = getelementptr inbounds i32* %323, i64 %321, !llfi_index !305
  %326 = getelementptr inbounds i32* %324, i64 %322, !llfi_index !305
  %check_cmp104 = icmp eq i32* %325, %326
  %check_and105 = and i1 %check_cmp104, %check_and103
  store i1 %check_and105, i1* %AI
  store i32 %317, i32* %325, align 4, !llfi_index !306
  br label %327, !llfi_index !307

; <label>:327                                     ; preds = %310
  %328 = load i32* %j6, align 4, !llfi_index !308
  %329 = load i32* %j6, align 4, !llfi_index !308
  %330 = add nsw i32 %328, 1, !llfi_index !309
  %331 = add nsw i32 %329, 1, !llfi_index !309
  %check_cmp106 = icmp eq i32 %330, %331
  %loadone107 = load i1* %AI
  %check_and108 = and i1 %check_cmp106, %loadone107
  store i1 %check_and108, i1* %AI
  store i32 %330, i32* %j6, align 4, !llfi_index !310
  br label %303, !llfi_index !311

; <label>:332                                     ; preds = %303
  %333 = load i32* %omp_num_threads, align 4, !llfi_index !312
  %334 = load i32* %omp_num_threads, align 4, !llfi_index !312
  %check_cmp109 = icmp eq i32 %333, %334
  %loadone110 = load i1* %AI
  %check_and111 = and i1 %check_cmp109, %loadone110
  %335 = call i32 (i8*, ...)* @printf(i8* getelementptr inbounds ([20 x i8]* @.str7, i32 0, i32 0), i32 %333), !llfi_index !313
  %336 = call i32 (i8*, ...)* @printf(i8* getelementptr inbounds ([28 x i8]* @.str8, i32 0, i32 0)), !llfi_index !314
  %337 = call i64 @_Z8get_timev(), !llfi_index !315
  store i64 %337, i64* %start_time, align 8, !llfi_index !316
  %338 = load i32** %input_itemsets, align 8, !llfi_index !317
  %339 = load i32** %input_itemsets, align 8, !llfi_index !317
  %check_cmp112 = icmp eq i32* %338, %339
  %check_and113 = and i1 %check_cmp112, %check_and111
  %340 = load i32** %output_itemsets, align 8, !llfi_index !318
  %341 = load i32** %output_itemsets, align 8, !llfi_index !318
  %check_cmp114 = icmp eq i32* %340, %341
  %check_and115 = and i1 %check_cmp114, %check_and113
  %342 = load i32** %referrence, align 8, !llfi_index !319
  %343 = load i32** %referrence, align 8, !llfi_index !319
  %check_cmp116 = icmp eq i32* %342, %343
  %check_and117 = and i1 %check_cmp116, %check_and115
  %344 = load i32* %max_rows, align 4, !llfi_index !320
  %345 = load i32* %max_rows, align 4, !llfi_index !320
  %check_cmp118 = icmp eq i32 %344, %345
  %check_and119 = and i1 %check_cmp118, %check_and117
  %346 = load i32* %max_cols, align 4, !llfi_index !321
  %347 = load i32* %max_cols, align 4, !llfi_index !321
  %check_cmp120 = icmp eq i32 %346, %347
  %check_and121 = and i1 %check_cmp120, %check_and119
  %348 = load i32* %penalty, align 4, !llfi_index !322
  %349 = load i32* %penalty, align 4, !llfi_index !322
  %check_cmp122 = icmp eq i32 %348, %349
  %check_and123 = and i1 %check_cmp122, %check_and121
  call void @_Z12nw_optimizedPiS_S_iii(i32* %338, i32* %340, i32* %342, i32 %344, i32 %346, i32 %348), !llfi_index !323
  %350 = call i64 @_Z8get_timev(), !llfi_index !324
  store i64 %350, i64* %end_time, align 8, !llfi_index !325
  %351 = load i64* %end_time, align 8, !llfi_index !326
  %352 = load i64* %end_time, align 8, !llfi_index !326
  %353 = load i64* %start_time, align 8, !llfi_index !327
  %354 = load i64* %start_time, align 8, !llfi_index !327
  %355 = sub nsw i64 %351, %353, !llfi_index !328
  %356 = sub nsw i64 %352, %354, !llfi_index !328
  %357 = sitofp i64 %355 to float, !llfi_index !329
  %358 = sitofp i64 %356 to float, !llfi_index !329
  %359 = fdiv float %357, 1.000000e+06, !llfi_index !330
  %360 = fdiv float %358, 1.000000e+06, !llfi_index !330
  %361 = fpext float %359 to double, !llfi_index !331
  %362 = fpext float %360 to double, !llfi_index !331
  %check_cmp124 = fcmp ueq double %361, %362
  %check_and125 = and i1 %check_cmp124, %check_and123
  %363 = call i32 (i8*, ...)* @printf(i8* getelementptr inbounds ([26 x i8]* @.str9, i32 0, i32 0), double %361), !llfi_index !332
  %364 = call %struct._IO_FILE* @fopen(i8* getelementptr inbounds ([11 x i8]* @.str10, i32 0, i32 0), i8* getelementptr inbounds ([2 x i8]* @.str11, i32 0, i32 0)), !llfi_index !333
  store %struct._IO_FILE* %364, %struct._IO_FILE** %fpo, align 8, !llfi_index !334
  %365 = load %struct._IO_FILE** %fpo, align 8, !llfi_index !335
  %366 = load %struct._IO_FILE** %fpo, align 8, !llfi_index !335
  %check_cmp126 = icmp eq %struct._IO_FILE* %365, %366
  %check_and127 = and i1 %check_cmp126, %check_and125
  %367 = call i32 (%struct._IO_FILE*, i8*, ...)* @fprintf(%struct._IO_FILE* %365, i8* getelementptr inbounds ([28 x i8]* @.str12, i32 0, i32 0)), !llfi_index !336
  %368 = load i32* %max_rows, align 4, !llfi_index !337
  %369 = load i32* %max_rows, align 4, !llfi_index !337
  %370 = sub nsw i32 %368, 2, !llfi_index !338
  %371 = sub nsw i32 %369, 2, !llfi_index !338
  %check_cmp128 = icmp eq i32 %370, %371
  %check_and129 = and i1 %check_cmp128, %check_and127
  store i32 %370, i32* %i7, align 4, !llfi_index !339
  %372 = load i32* %max_rows, align 4, !llfi_index !340
  %373 = load i32* %max_rows, align 4, !llfi_index !340
  %374 = sub nsw i32 %372, 2, !llfi_index !341
  %375 = sub nsw i32 %373, 2, !llfi_index !341
  %check_cmp130 = icmp eq i32 %374, %375
  %check_and131 = and i1 %check_cmp130, %check_and129
  store i1 %check_and131, i1* %AI
  store i32 %374, i32* %j8, align 4, !llfi_index !342
  br label %376, !llfi_index !343

; <label>:376                                     ; preds = %683, %675, %663, %647, %332
  %377 = load i32* %i7, align 4, !llfi_index !344
  %378 = load i32* %i7, align 4, !llfi_index !344
  %379 = icmp sge i32 %377, 0, !llfi_index !345
  %380 = icmp sge i32 %378, 0, !llfi_index !345
  %check_cmp132 = icmp eq i1 %379, %380
  %loadone133 = load i1* %AI
  %check_and134 = and i1 %check_cmp132, %loadone133
  %381 = load i32* %j8, align 4, !llfi_index !346
  %382 = load i32* %j8, align 4, !llfi_index !346
  %383 = icmp sge i32 %381, 0, !llfi_index !347
  %384 = icmp sge i32 %382, 0, !llfi_index !347
  %check_cmp135 = icmp eq i1 %383, %384
  %check_and136 = and i1 %check_cmp135, %check_and134
  store i1 %check_and136, i1* %AI
  br i1 %383, label %385, label %684, !llfi_index !348

; <label>:385                                     ; preds = %376
  %386 = load i32* %i7, align 4, !llfi_index !349
  %387 = load i32* %i7, align 4, !llfi_index !349
  %388 = load i32* %max_rows, align 4, !llfi_index !350
  %389 = load i32* %max_rows, align 4, !llfi_index !350
  %390 = sub nsw i32 %388, 2, !llfi_index !351
  %391 = sub nsw i32 %389, 2, !llfi_index !351
  %392 = icmp eq i32 %386, %390, !llfi_index !352
  %393 = icmp eq i32 %387, %391, !llfi_index !352
  %check_cmp137 = icmp eq i1 %392, %393
  %loadone138 = load i1* %AI
  %check_and139 = and i1 %check_cmp137, %loadone138
  store i1 %check_and139, i1* %AI
  br i1 %392, label %394, label %425, !llfi_index !353

; <label>:394                                     ; preds = %385
  %395 = load i32* %j8, align 4, !llfi_index !354
  %396 = load i32* %j8, align 4, !llfi_index !354
  %397 = load i32* %max_rows, align 4, !llfi_index !355
  %398 = load i32* %max_rows, align 4, !llfi_index !355
  %399 = sub nsw i32 %397, 2, !llfi_index !356
  %400 = sub nsw i32 %398, 2, !llfi_index !356
  %401 = icmp eq i32 %395, %399, !llfi_index !357
  %402 = icmp eq i32 %396, %400, !llfi_index !357
  %check_cmp140 = icmp eq i1 %401, %402
  %loadone141 = load i1* %AI
  %check_and142 = and i1 %check_cmp140, %loadone141
  store i1 %check_and142, i1* %AI
  br i1 %401, label %403, label %425, !llfi_index !358

; <label>:403                                     ; preds = %394
  %404 = load %struct._IO_FILE** %fpo, align 8, !llfi_index !359
  %405 = load %struct._IO_FILE** %fpo, align 8, !llfi_index !359
  %check_cmp143 = icmp eq %struct._IO_FILE* %404, %405
  %loadone144 = load i1* %AI
  %check_and145 = and i1 %check_cmp143, %loadone144
  %406 = load i32* %i7, align 4, !llfi_index !360
  %407 = load i32* %i7, align 4, !llfi_index !360
  %408 = load i32* %max_cols, align 4, !llfi_index !361
  %409 = load i32* %max_cols, align 4, !llfi_index !361
  %410 = mul nsw i32 %406, %408, !llfi_index !362
  %411 = mul nsw i32 %407, %409, !llfi_index !362
  %412 = load i32* %j8, align 4, !llfi_index !363
  %413 = load i32* %j8, align 4, !llfi_index !363
  %414 = add nsw i32 %410, %412, !llfi_index !364
  %415 = add nsw i32 %411, %413, !llfi_index !364
  %416 = sext i32 %414 to i64, !llfi_index !365
  %417 = sext i32 %415 to i64, !llfi_index !365
  %418 = load i32** %input_itemsets, align 8, !llfi_index !366
  %419 = load i32** %input_itemsets, align 8, !llfi_index !366
  %420 = getelementptr inbounds i32* %418, i64 %416, !llfi_index !367
  %421 = getelementptr inbounds i32* %419, i64 %417, !llfi_index !367
  %422 = load i32* %420, align 4, !llfi_index !368
  %423 = load i32* %421, align 4, !llfi_index !368
  %check_cmp146 = icmp eq i32 %422, %423
  %check_and147 = and i1 %check_cmp146, %check_and145
  store i1 %check_and147, i1* %AI
  %424 = call i32 (%struct._IO_FILE*, i8*, ...)* @fprintf(%struct._IO_FILE* %404, i8* getelementptr inbounds ([4 x i8]* @.str13, i32 0, i32 0), i32 %422), !llfi_index !369
  br label %425, !llfi_index !370

; <label>:425                                     ; preds = %403, %394, %385
  %426 = load i32* %i7, align 4, !llfi_index !371
  %427 = load i32* %i7, align 4, !llfi_index !371
  %428 = icmp eq i32 %426, 0, !llfi_index !372
  %429 = icmp eq i32 %427, 0, !llfi_index !372
  %check_cmp148 = icmp eq i1 %428, %429
  %loadone149 = load i1* %AI
  %check_and150 = and i1 %check_cmp148, %loadone149
  store i1 %check_and150, i1* %AI
  br i1 %428, label %430, label %436, !llfi_index !373

; <label>:430                                     ; preds = %425
  %431 = load i32* %j8, align 4, !llfi_index !374
  %432 = load i32* %j8, align 4, !llfi_index !374
  %433 = icmp eq i32 %431, 0, !llfi_index !375
  %434 = icmp eq i32 %432, 0, !llfi_index !375
  %check_cmp151 = icmp eq i1 %433, %434
  %loadone152 = load i1* %AI
  %check_and153 = and i1 %check_cmp151, %loadone152
  store i1 %check_and153, i1* %AI
  br i1 %433, label %435, label %436, !llfi_index !376

; <label>:435                                     ; preds = %430
  br label %684, !llfi_index !377

; <label>:436                                     ; preds = %430, %425
  %437 = load i32* %i7, align 4, !llfi_index !378
  %438 = load i32* %i7, align 4, !llfi_index !378
  %439 = icmp sgt i32 %437, 0, !llfi_index !379
  %440 = icmp sgt i32 %438, 0, !llfi_index !379
  %check_cmp154 = icmp eq i1 %439, %440
  %loadone155 = load i1* %AI
  %check_and156 = and i1 %check_cmp154, %loadone155
  store i1 %check_and156, i1* %AI
  br i1 %439, label %441, label %509, !llfi_index !380

; <label>:441                                     ; preds = %436
  %442 = load i32* %j8, align 4, !llfi_index !381
  %443 = load i32* %j8, align 4, !llfi_index !381
  %444 = icmp sgt i32 %442, 0, !llfi_index !382
  %445 = icmp sgt i32 %443, 0, !llfi_index !382
  %check_cmp157 = icmp eq i1 %444, %445
  %loadone158 = load i1* %AI
  %check_and159 = and i1 %check_cmp157, %loadone158
  store i1 %check_and159, i1* %AI
  br i1 %444, label %446, label %509, !llfi_index !383

; <label>:446                                     ; preds = %441
  %447 = load i32* %i7, align 4, !llfi_index !384
  %448 = load i32* %i7, align 4, !llfi_index !384
  %449 = sub nsw i32 %447, 1, !llfi_index !385
  %450 = sub nsw i32 %448, 1, !llfi_index !385
  %451 = load i32* %max_cols, align 4, !llfi_index !386
  %452 = load i32* %max_cols, align 4, !llfi_index !386
  %453 = mul nsw i32 %449, %451, !llfi_index !387
  %454 = mul nsw i32 %450, %452, !llfi_index !387
  %455 = load i32* %j8, align 4, !llfi_index !388
  %456 = load i32* %j8, align 4, !llfi_index !388
  %457 = add nsw i32 %453, %455, !llfi_index !389
  %458 = add nsw i32 %454, %456, !llfi_index !389
  %459 = sub nsw i32 %457, 1, !llfi_index !390
  %460 = sub nsw i32 %458, 1, !llfi_index !390
  %461 = sext i32 %459 to i64, !llfi_index !391
  %462 = sext i32 %460 to i64, !llfi_index !391
  %463 = load i32** %input_itemsets, align 8, !llfi_index !392
  %464 = load i32** %input_itemsets, align 8, !llfi_index !392
  %465 = getelementptr inbounds i32* %463, i64 %461, !llfi_index !393
  %466 = getelementptr inbounds i32* %464, i64 %462, !llfi_index !393
  %467 = load i32* %465, align 4, !llfi_index !394
  %468 = load i32* %466, align 4, !llfi_index !394
  %check_cmp160 = icmp eq i32 %467, %468
  %loadone161 = load i1* %AI
  %check_and162 = and i1 %check_cmp160, %loadone161
  store i32 %467, i32* %nw, align 4, !llfi_index !395
  %469 = load i32* %i7, align 4, !llfi_index !396
  %470 = load i32* %i7, align 4, !llfi_index !396
  %471 = load i32* %max_cols, align 4, !llfi_index !397
  %472 = load i32* %max_cols, align 4, !llfi_index !397
  %473 = mul nsw i32 %469, %471, !llfi_index !398
  %474 = mul nsw i32 %470, %472, !llfi_index !398
  %475 = load i32* %j8, align 4, !llfi_index !399
  %476 = load i32* %j8, align 4, !llfi_index !399
  %477 = add nsw i32 %473, %475, !llfi_index !400
  %478 = add nsw i32 %474, %476, !llfi_index !400
  %479 = sub nsw i32 %477, 1, !llfi_index !401
  %480 = sub nsw i32 %478, 1, !llfi_index !401
  %481 = sext i32 %479 to i64, !llfi_index !402
  %482 = sext i32 %480 to i64, !llfi_index !402
  %483 = load i32** %input_itemsets, align 8, !llfi_index !403
  %484 = load i32** %input_itemsets, align 8, !llfi_index !403
  %485 = getelementptr inbounds i32* %483, i64 %481, !llfi_index !404
  %486 = getelementptr inbounds i32* %484, i64 %482, !llfi_index !404
  %487 = load i32* %485, align 4, !llfi_index !405
  %488 = load i32* %486, align 4, !llfi_index !405
  %check_cmp163 = icmp eq i32 %487, %488
  %check_and164 = and i1 %check_cmp163, %check_and162
  store i32 %487, i32* %w, align 4, !llfi_index !406
  %489 = load i32* %i7, align 4, !llfi_index !407
  %490 = load i32* %i7, align 4, !llfi_index !407
  %491 = sub nsw i32 %489, 1, !llfi_index !408
  %492 = sub nsw i32 %490, 1, !llfi_index !408
  %493 = load i32* %max_cols, align 4, !llfi_index !409
  %494 = load i32* %max_cols, align 4, !llfi_index !409
  %495 = mul nsw i32 %491, %493, !llfi_index !410
  %496 = mul nsw i32 %492, %494, !llfi_index !410
  %497 = load i32* %j8, align 4, !llfi_index !411
  %498 = load i32* %j8, align 4, !llfi_index !411
  %499 = add nsw i32 %495, %497, !llfi_index !412
  %500 = add nsw i32 %496, %498, !llfi_index !412
  %501 = sext i32 %499 to i64, !llfi_index !413
  %502 = sext i32 %500 to i64, !llfi_index !413
  %503 = load i32** %input_itemsets, align 8, !llfi_index !414
  %504 = load i32** %input_itemsets, align 8, !llfi_index !414
  %505 = getelementptr inbounds i32* %503, i64 %501, !llfi_index !415
  %506 = getelementptr inbounds i32* %504, i64 %502, !llfi_index !415
  %507 = load i32* %505, align 4, !llfi_index !416
  %508 = load i32* %506, align 4, !llfi_index !416
  %check_cmp165 = icmp eq i32 %507, %508
  %check_and166 = and i1 %check_cmp165, %check_and164
  store i1 %check_and166, i1* %AI
  store i32 %507, i32* %n, align 4, !llfi_index !417
  br label %564, !llfi_index !418

; <label>:509                                     ; preds = %441, %436
  %510 = load i32* %i7, align 4, !llfi_index !419
  %511 = load i32* %i7, align 4, !llfi_index !419
  %512 = icmp eq i32 %510, 0, !llfi_index !420
  %513 = icmp eq i32 %511, 0, !llfi_index !420
  %check_cmp167 = icmp eq i1 %512, %513
  %loadone168 = load i1* %AI
  %check_and169 = and i1 %check_cmp167, %loadone168
  store i1 %check_and169, i1* %AI
  br i1 %512, label %514, label %535, !llfi_index !421

; <label>:514                                     ; preds = %509
  store i32 -999, i32* %n, align 4, !llfi_index !422
  store i32 -999, i32* %nw, align 4, !llfi_index !423
  %515 = load i32* %i7, align 4, !llfi_index !424
  %516 = load i32* %i7, align 4, !llfi_index !424
  %517 = load i32* %max_cols, align 4, !llfi_index !425
  %518 = load i32* %max_cols, align 4, !llfi_index !425
  %519 = mul nsw i32 %515, %517, !llfi_index !426
  %520 = mul nsw i32 %516, %518, !llfi_index !426
  %521 = load i32* %j8, align 4, !llfi_index !427
  %522 = load i32* %j8, align 4, !llfi_index !427
  %523 = add nsw i32 %519, %521, !llfi_index !428
  %524 = add nsw i32 %520, %522, !llfi_index !428
  %525 = sub nsw i32 %523, 1, !llfi_index !429
  %526 = sub nsw i32 %524, 1, !llfi_index !429
  %527 = sext i32 %525 to i64, !llfi_index !430
  %528 = sext i32 %526 to i64, !llfi_index !430
  %529 = load i32** %input_itemsets, align 8, !llfi_index !431
  %530 = load i32** %input_itemsets, align 8, !llfi_index !431
  %531 = getelementptr inbounds i32* %529, i64 %527, !llfi_index !432
  %532 = getelementptr inbounds i32* %530, i64 %528, !llfi_index !432
  %533 = load i32* %531, align 4, !llfi_index !433
  %534 = load i32* %532, align 4, !llfi_index !433
  %check_cmp170 = icmp eq i32 %533, %534
  %loadone171 = load i1* %AI
  %check_and172 = and i1 %check_cmp170, %loadone171
  store i1 %check_and172, i1* %AI
  store i32 %533, i32* %w, align 4, !llfi_index !434
  br label %563, !llfi_index !435

; <label>:535                                     ; preds = %509
  %536 = load i32* %j8, align 4, !llfi_index !436
  %537 = load i32* %j8, align 4, !llfi_index !436
  %538 = icmp eq i32 %536, 0, !llfi_index !437
  %539 = icmp eq i32 %537, 0, !llfi_index !437
  %check_cmp173 = icmp eq i1 %538, %539
  %loadone174 = load i1* %AI
  %check_and175 = and i1 %check_cmp173, %loadone174
  store i1 %check_and175, i1* %AI
  br i1 %538, label %540, label %561, !llfi_index !438

; <label>:540                                     ; preds = %535
  store i32 -999, i32* %w, align 4, !llfi_index !439
  store i32 -999, i32* %nw, align 4, !llfi_index !440
  %541 = load i32* %i7, align 4, !llfi_index !441
  %542 = load i32* %i7, align 4, !llfi_index !441
  %543 = sub nsw i32 %541, 1, !llfi_index !442
  %544 = sub nsw i32 %542, 1, !llfi_index !442
  %545 = load i32* %max_cols, align 4, !llfi_index !443
  %546 = load i32* %max_cols, align 4, !llfi_index !443
  %547 = mul nsw i32 %543, %545, !llfi_index !444
  %548 = mul nsw i32 %544, %546, !llfi_index !444
  %549 = load i32* %j8, align 4, !llfi_index !445
  %550 = load i32* %j8, align 4, !llfi_index !445
  %551 = add nsw i32 %547, %549, !llfi_index !446
  %552 = add nsw i32 %548, %550, !llfi_index !446
  %553 = sext i32 %551 to i64, !llfi_index !447
  %554 = sext i32 %552 to i64, !llfi_index !447
  %555 = load i32** %input_itemsets, align 8, !llfi_index !448
  %556 = load i32** %input_itemsets, align 8, !llfi_index !448
  %557 = getelementptr inbounds i32* %555, i64 %553, !llfi_index !449
  %558 = getelementptr inbounds i32* %556, i64 %554, !llfi_index !449
  %559 = load i32* %557, align 4, !llfi_index !450
  %560 = load i32* %558, align 4, !llfi_index !450
  %check_cmp176 = icmp eq i32 %559, %560
  %loadone177 = load i1* %AI
  %check_and178 = and i1 %check_cmp176, %loadone177
  store i1 %check_and178, i1* %AI
  store i32 %559, i32* %n, align 4, !llfi_index !451
  br label %562, !llfi_index !452

; <label>:561                                     ; preds = %535
  br label %562, !llfi_index !453

; <label>:562                                     ; preds = %561, %540
  br label %563, !llfi_index !454

; <label>:563                                     ; preds = %562, %514
  br label %564, !llfi_index !455

; <label>:564                                     ; preds = %563, %446
  %565 = load i32* %nw, align 4, !llfi_index !456
  %566 = load i32* %nw, align 4, !llfi_index !456
  %567 = load i32* %i7, align 4, !llfi_index !457
  %568 = load i32* %i7, align 4, !llfi_index !457
  %569 = load i32* %max_cols, align 4, !llfi_index !458
  %570 = load i32* %max_cols, align 4, !llfi_index !458
  %571 = mul nsw i32 %567, %569, !llfi_index !459
  %572 = mul nsw i32 %568, %570, !llfi_index !459
  %573 = load i32* %j8, align 4, !llfi_index !460
  %574 = load i32* %j8, align 4, !llfi_index !460
  %575 = add nsw i32 %571, %573, !llfi_index !461
  %576 = add nsw i32 %572, %574, !llfi_index !461
  %577 = sext i32 %575 to i64, !llfi_index !462
  %578 = sext i32 %576 to i64, !llfi_index !462
  %579 = load i32** %referrence, align 8, !llfi_index !463
  %580 = load i32** %referrence, align 8, !llfi_index !463
  %581 = getelementptr inbounds i32* %579, i64 %577, !llfi_index !464
  %582 = getelementptr inbounds i32* %580, i64 %578, !llfi_index !464
  %583 = load i32* %581, align 4, !llfi_index !465
  %584 = load i32* %582, align 4, !llfi_index !465
  %585 = add nsw i32 %565, %583, !llfi_index !466
  %586 = add nsw i32 %566, %584, !llfi_index !466
  %check_cmp179 = icmp eq i32 %585, %586
  %loadone180 = load i1* %AI
  %check_and181 = and i1 %check_cmp179, %loadone180
  store i32 %585, i32* %new_nw, align 4, !llfi_index !467
  %587 = load i32* %w, align 4, !llfi_index !468
  %588 = load i32* %w, align 4, !llfi_index !468
  %589 = load i32* %penalty, align 4, !llfi_index !469
  %590 = load i32* %penalty, align 4, !llfi_index !469
  %591 = sub nsw i32 %587, %589, !llfi_index !470
  %592 = sub nsw i32 %588, %590, !llfi_index !470
  %check_cmp182 = icmp eq i32 %591, %592
  %check_and183 = and i1 %check_cmp182, %check_and181
  store i32 %591, i32* %new_w, align 4, !llfi_index !471
  %593 = load i32* %n, align 4, !llfi_index !472
  %594 = load i32* %n, align 4, !llfi_index !472
  %595 = load i32* %penalty, align 4, !llfi_index !473
  %596 = load i32* %penalty, align 4, !llfi_index !473
  %597 = sub nsw i32 %593, %595, !llfi_index !474
  %598 = sub nsw i32 %594, %596, !llfi_index !474
  %check_cmp184 = icmp eq i32 %597, %598
  %check_and185 = and i1 %check_cmp184, %check_and183
  store i32 %597, i32* %new_n, align 4, !llfi_index !475
  %599 = load i32* %new_nw, align 4, !llfi_index !476
  %600 = load i32* %new_nw, align 4, !llfi_index !476
  %check_cmp186 = icmp eq i32 %599, %600
  %check_and187 = and i1 %check_cmp186, %check_and185
  %601 = load i32* %new_w, align 4, !llfi_index !477
  %602 = load i32* %new_w, align 4, !llfi_index !477
  %check_cmp188 = icmp eq i32 %601, %602
  %check_and189 = and i1 %check_cmp188, %check_and187
  %603 = load i32* %new_n, align 4, !llfi_index !478
  %604 = load i32* %new_n, align 4, !llfi_index !478
  %check_cmp190 = icmp eq i32 %603, %604
  %check_and191 = and i1 %check_cmp190, %check_and189
  %605 = call i32 @_Z7maximumiii(i32 %599, i32 %601, i32 %603), !llfi_index !479
  store i32 %605, i32* %traceback, align 4, !llfi_index !480
  %606 = load i32* %traceback, align 4, !llfi_index !481
  %607 = load i32* %traceback, align 4, !llfi_index !481
  %608 = load i32* %new_nw, align 4, !llfi_index !482
  %609 = load i32* %new_nw, align 4, !llfi_index !482
  %610 = icmp eq i32 %606, %608, !llfi_index !483
  %611 = icmp eq i32 %607, %609, !llfi_index !483
  %check_cmp192 = icmp eq i1 %610, %611
  %check_and193 = and i1 %check_cmp192, %check_and191
  store i1 %check_and193, i1* %AI
  br i1 %610, label %612, label %615, !llfi_index !484

; <label>:612                                     ; preds = %564
  %613 = load i32* %nw, align 4, !llfi_index !485
  %614 = load i32* %nw, align 4, !llfi_index !485
  %check_cmp194 = icmp eq i32 %613, %614
  %loadone195 = load i1* %AI
  %check_and196 = and i1 %check_cmp194, %loadone195
  store i1 %check_and196, i1* %AI
  store i32 %613, i32* %traceback, align 4, !llfi_index !486
  br label %615, !llfi_index !487

; <label>:615                                     ; preds = %612, %564
  %616 = load i32* %traceback, align 4, !llfi_index !488
  %617 = load i32* %traceback, align 4, !llfi_index !488
  %618 = load i32* %new_w, align 4, !llfi_index !489
  %619 = load i32* %new_w, align 4, !llfi_index !489
  %620 = icmp eq i32 %616, %618, !llfi_index !490
  %621 = icmp eq i32 %617, %619, !llfi_index !490
  %check_cmp197 = icmp eq i1 %620, %621
  %loadone198 = load i1* %AI
  %check_and199 = and i1 %check_cmp197, %loadone198
  store i1 %check_and199, i1* %AI
  br i1 %620, label %622, label %625, !llfi_index !491

; <label>:622                                     ; preds = %615
  %623 = load i32* %w, align 4, !llfi_index !492
  %624 = load i32* %w, align 4, !llfi_index !492
  %check_cmp200 = icmp eq i32 %623, %624
  %loadone201 = load i1* %AI
  %check_and202 = and i1 %check_cmp200, %loadone201
  store i1 %check_and202, i1* %AI
  store i32 %623, i32* %traceback, align 4, !llfi_index !493
  br label %625, !llfi_index !494

; <label>:625                                     ; preds = %622, %615
  %626 = load i32* %traceback, align 4, !llfi_index !495
  %627 = load i32* %traceback, align 4, !llfi_index !495
  %628 = load i32* %new_n, align 4, !llfi_index !496
  %629 = load i32* %new_n, align 4, !llfi_index !496
  %630 = icmp eq i32 %626, %628, !llfi_index !497
  %631 = icmp eq i32 %627, %629, !llfi_index !497
  %check_cmp203 = icmp eq i1 %630, %631
  %loadone204 = load i1* %AI
  %check_and205 = and i1 %check_cmp203, %loadone204
  store i1 %check_and205, i1* %AI
  br i1 %630, label %632, label %635, !llfi_index !498

; <label>:632                                     ; preds = %625
  %633 = load i32* %n, align 4, !llfi_index !499
  %634 = load i32* %n, align 4, !llfi_index !499
  %check_cmp206 = icmp eq i32 %633, %634
  %loadone207 = load i1* %AI
  %check_and208 = and i1 %check_cmp206, %loadone207
  store i1 %check_and208, i1* %AI
  store i32 %633, i32* %traceback, align 4, !llfi_index !500
  br label %635, !llfi_index !501

; <label>:635                                     ; preds = %632, %625
  %636 = load %struct._IO_FILE** %fpo, align 8, !llfi_index !502
  %637 = load %struct._IO_FILE** %fpo, align 8, !llfi_index !502
  %check_cmp209 = icmp eq %struct._IO_FILE* %636, %637
  %loadone210 = load i1* %AI
  %check_and211 = and i1 %check_cmp209, %loadone210
  %638 = load i32* %traceback, align 4, !llfi_index !503
  %639 = load i32* %traceback, align 4, !llfi_index !503
  %check_cmp212 = icmp eq i32 %638, %639
  %check_and213 = and i1 %check_cmp212, %check_and211
  %640 = call i32 (%struct._IO_FILE*, i8*, ...)* @fprintf(%struct._IO_FILE* %636, i8* getelementptr inbounds ([4 x i8]* @.str13, i32 0, i32 0), i32 %638), !llfi_index !504
  %641 = load i32* %traceback, align 4, !llfi_index !505
  %642 = load i32* %traceback, align 4, !llfi_index !505
  %643 = load i32* %nw, align 4, !llfi_index !506
  %644 = load i32* %nw, align 4, !llfi_index !506
  %645 = icmp eq i32 %641, %643, !llfi_index !507
  %646 = icmp eq i32 %642, %644, !llfi_index !507
  %check_cmp214 = icmp eq i1 %645, %646
  %check_and215 = and i1 %check_cmp214, %check_and213
  store i1 %check_and215, i1* %AI
  br i1 %645, label %647, label %656, !llfi_index !508

; <label>:647                                     ; preds = %635
  %648 = load i32* %i7, align 4, !llfi_index !509
  %649 = load i32* %i7, align 4, !llfi_index !509
  %650 = add nsw i32 %648, -1, !llfi_index !510
  %651 = add nsw i32 %649, -1, !llfi_index !510
  %check_cmp216 = icmp eq i32 %650, %651
  %loadone217 = load i1* %AI
  %check_and218 = and i1 %check_cmp216, %loadone217
  store i32 %650, i32* %i7, align 4, !llfi_index !511
  %652 = load i32* %j8, align 4, !llfi_index !512
  %653 = load i32* %j8, align 4, !llfi_index !512
  %654 = add nsw i32 %652, -1, !llfi_index !513
  %655 = add nsw i32 %653, -1, !llfi_index !513
  %check_cmp219 = icmp eq i32 %654, %655
  %check_and220 = and i1 %check_cmp219, %check_and218
  store i1 %check_and220, i1* %AI
  store i32 %654, i32* %j8, align 4, !llfi_index !514
  br label %376, !llfi_index !515

; <label>:656                                     ; preds = %635
  %657 = load i32* %traceback, align 4, !llfi_index !516
  %658 = load i32* %traceback, align 4, !llfi_index !516
  %659 = load i32* %w, align 4, !llfi_index !517
  %660 = load i32* %w, align 4, !llfi_index !517
  %661 = icmp eq i32 %657, %659, !llfi_index !518
  %662 = icmp eq i32 %658, %660, !llfi_index !518
  %check_cmp221 = icmp eq i1 %661, %662
  %loadone222 = load i1* %AI
  %check_and223 = and i1 %check_cmp221, %loadone222
  store i1 %check_and223, i1* %AI
  br i1 %661, label %663, label %668, !llfi_index !519

; <label>:663                                     ; preds = %656
  %664 = load i32* %j8, align 4, !llfi_index !520
  %665 = load i32* %j8, align 4, !llfi_index !520
  %666 = add nsw i32 %664, -1, !llfi_index !521
  %667 = add nsw i32 %665, -1, !llfi_index !521
  %check_cmp224 = icmp eq i32 %666, %667
  %loadone225 = load i1* %AI
  %check_and226 = and i1 %check_cmp224, %loadone225
  store i1 %check_and226, i1* %AI
  store i32 %666, i32* %j8, align 4, !llfi_index !522
  br label %376, !llfi_index !523

; <label>:668                                     ; preds = %656
  %669 = load i32* %traceback, align 4, !llfi_index !524
  %670 = load i32* %traceback, align 4, !llfi_index !524
  %671 = load i32* %n, align 4, !llfi_index !525
  %672 = load i32* %n, align 4, !llfi_index !525
  %673 = icmp eq i32 %669, %671, !llfi_index !526
  %674 = icmp eq i32 %670, %672, !llfi_index !526
  %check_cmp227 = icmp eq i1 %673, %674
  %loadone228 = load i1* %AI
  %check_and229 = and i1 %check_cmp227, %loadone228
  store i1 %check_and229, i1* %AI
  br i1 %673, label %675, label %680, !llfi_index !527

; <label>:675                                     ; preds = %668
  %676 = load i32* %i7, align 4, !llfi_index !528
  %677 = load i32* %i7, align 4, !llfi_index !528
  %678 = add nsw i32 %676, -1, !llfi_index !529
  %679 = add nsw i32 %677, -1, !llfi_index !529
  %check_cmp230 = icmp eq i32 %678, %679
  %loadone231 = load i1* %AI
  %check_and232 = and i1 %check_cmp230, %loadone231
  store i1 %check_and232, i1* %AI
  store i32 %678, i32* %i7, align 4, !llfi_index !530
  br label %376, !llfi_index !531

; <label>:680                                     ; preds = %668
  br label %681, !llfi_index !532

; <label>:681                                     ; preds = %680
  br label %682, !llfi_index !533

; <label>:682                                     ; preds = %681
  br label %683, !llfi_index !534

; <label>:683                                     ; preds = %682
  br label %376, !llfi_index !535

; <label>:684                                     ; preds = %435, %376
  %685 = load %struct._IO_FILE** %fpo, align 8, !llfi_index !536
  %686 = load %struct._IO_FILE** %fpo, align 8, !llfi_index !536
  %check_cmp233 = icmp eq %struct._IO_FILE* %685, %686
  %loadone234 = load i1* %AI
  %check_and235 = and i1 %check_cmp233, %loadone234
  %687 = call i32 @fclose(%struct._IO_FILE* %685), !llfi_index !537
  %688 = load i32** %referrence, align 8, !llfi_index !538
  %689 = load i32** %referrence, align 8, !llfi_index !538
  %690 = bitcast i32* %688 to i8*, !llfi_index !539
  %691 = bitcast i32* %689 to i8*, !llfi_index !539
  %check_cmp236 = icmp eq i8* %690, %691
  %check_and237 = and i1 %check_cmp236, %check_and235
  call void @free(i8* %690) #6, !llfi_index !540
  %692 = load i32** %input_itemsets, align 8, !llfi_index !541
  %693 = load i32** %input_itemsets, align 8, !llfi_index !541
  %694 = bitcast i32* %692 to i8*, !llfi_index !542
  %695 = bitcast i32* %693 to i8*, !llfi_index !542
  %check_cmp238 = icmp eq i8* %694, %695
  %check_and239 = and i1 %check_cmp238, %check_and237
  call void @free(i8* %694) #6, !llfi_index !543
  %696 = load i32** %output_itemsets, align 8, !llfi_index !544
  %697 = load i32** %output_itemsets, align 8, !llfi_index !544
  %698 = bitcast i32* %696 to i8*, !llfi_index !545
  %699 = bitcast i32* %697 to i8*, !llfi_index !545
  %check_cmp240 = icmp eq i8* %698, %699
  %check_and241 = and i1 %check_cmp240, %check_and239
  store i1 %check_and241, i1* %AI
  br i1 %check_and241, label %700, label %checkBb

checkBb:                                          ; preds = %684
  call void @check_flag()
  br label %700

; <label>:700                                     ; preds = %checkBb, %684
  call void @free(i8* %698) #6, !llfi_index !546
  ret void, !llfi_index !547
}

; Function Attrs: uwtable
define void @_Z5usageiPPc(i32 %argc, i8** %argv) #2 {
  %1 = alloca i32, align 4, !llfi_index !548
  %2 = alloca i8**, align 8, !llfi_index !549
  store i32 %argc, i32* %1, align 4, !llfi_index !550
  store i8** %argv, i8*** %2, align 8, !llfi_index !551
  %AI = alloca i1
  store i1 true, i1* %AI
  %3 = load %struct._IO_FILE** @stderr, align 8, !llfi_index !552
  %4 = load %struct._IO_FILE** @stderr, align 8, !llfi_index !552
  %check_cmp = icmp eq %struct._IO_FILE* %3, %4
  %loadone = load i1* %AI
  %check_and = and i1 %check_cmp, %loadone
  %5 = load i8*** %2, align 8, !llfi_index !553
  %6 = load i8*** %2, align 8, !llfi_index !553
  %7 = getelementptr inbounds i8** %5, i64 0, !llfi_index !554
  %8 = getelementptr inbounds i8** %6, i64 0, !llfi_index !554
  %9 = load i8** %7, align 8, !llfi_index !555
  %10 = load i8** %8, align 8, !llfi_index !555
  %check_cmp1 = icmp eq i8* %9, %10
  %check_and2 = and i1 %check_cmp1, %check_and
  %11 = call i32 (%struct._IO_FILE*, i8*, ...)* @fprintf(%struct._IO_FILE* %3, i8* getelementptr inbounds ([55 x i8]* @.str, i32 0, i32 0), i8* %9), !llfi_index !556
  %12 = load %struct._IO_FILE** @stderr, align 8, !llfi_index !557
  %13 = load %struct._IO_FILE** @stderr, align 8, !llfi_index !557
  %check_cmp3 = icmp eq %struct._IO_FILE* %12, %13
  %check_and4 = and i1 %check_cmp3, %check_and2
  %14 = call i32 (%struct._IO_FILE*, i8*, ...)* @fprintf(%struct._IO_FILE* %12, i8* getelementptr inbounds ([40 x i8]* @.str1, i32 0, i32 0)), !llfi_index !558
  %15 = load %struct._IO_FILE** @stderr, align 8, !llfi_index !559
  %16 = load %struct._IO_FILE** @stderr, align 8, !llfi_index !559
  %check_cmp5 = icmp eq %struct._IO_FILE* %15, %16
  %check_and6 = and i1 %check_cmp5, %check_and4
  %17 = call i32 (%struct._IO_FILE*, i8*, ...)* @fprintf(%struct._IO_FILE* %15, i8* getelementptr inbounds ([47 x i8]* @.str2, i32 0, i32 0)), !llfi_index !560
  %18 = load %struct._IO_FILE** @stderr, align 8, !llfi_index !561
  %19 = load %struct._IO_FILE** @stderr, align 8, !llfi_index !561
  %check_cmp7 = icmp eq %struct._IO_FILE* %18, %19
  %check_and8 = and i1 %check_cmp7, %check_and6
  store i1 %check_and8, i1* %AI
  br i1 %check_and8, label %20, label %checkBb

checkBb:                                          ; preds = %0
  call void @check_flag()
  br label %20

; <label>:20                                      ; preds = %checkBb, %0
  %21 = call i32 (%struct._IO_FILE*, i8*, ...)* @fprintf(%struct._IO_FILE* %18, i8* getelementptr inbounds ([36 x i8]* @.str3, i32 0, i32 0)), !llfi_index !562
  call void @exit(i32 1) #8, !llfi_index !563
  unreachable, !llfi_index !564
                                                  ; No predecessors!
  ret void, !llfi_index !565
}

declare i32 @fprintf(%struct._IO_FILE*, i8*, ...) #3

; Function Attrs: noreturn nounwind
declare void @exit(i32) #4

; Function Attrs: uwtable
define void @_Z12nw_optimizedPiS_S_iii(i32* %input_itemsets, i32* %output_itemsets, i32* %referrence, i32 %max_rows, i32 %max_cols, i32 %penalty) #2 {
  %1 = alloca i32*, align 8, !llfi_index !566
  %2 = alloca i32*, align 8, !llfi_index !567
  %3 = alloca i32*, align 8, !llfi_index !568
  %4 = alloca i32, align 4, !llfi_index !569
  %5 = alloca i32, align 4, !llfi_index !570
  %6 = alloca i32, align 4, !llfi_index !571
  %blk = alloca i32, align 4, !llfi_index !572
  %b_index_x = alloca i32, align 4, !llfi_index !573
  %b_index_y = alloca i32, align 4, !llfi_index !574
  %input_itemsets_l = alloca [289 x i32], align 64, !llfi_index !575
  %reference_l = alloca [256 x i32], align 64, !llfi_index !576
  %i = alloca i32, align 4, !llfi_index !577
  %j = alloca i32, align 4, !llfi_index !578
  %i1 = alloca i32, align 4, !llfi_index !579
  %j2 = alloca i32, align 4, !llfi_index !580
  %i3 = alloca i32, align 4, !llfi_index !581
  %j4 = alloca i32, align 4, !llfi_index !582
  %i5 = alloca i32, align 4, !llfi_index !583
  %j6 = alloca i32, align 4, !llfi_index !584
  %blk7 = alloca i32, align 4, !llfi_index !585
  %b_index_x8 = alloca i32, align 4, !llfi_index !586
  %b_index_y9 = alloca i32, align 4, !llfi_index !587
  %input_itemsets_l10 = alloca [289 x i32], align 64, !llfi_index !588
  %reference_l11 = alloca [256 x i32], align 64, !llfi_index !589
  %i12 = alloca i32, align 4, !llfi_index !590
  %j13 = alloca i32, align 4, !llfi_index !591
  %i14 = alloca i32, align 4, !llfi_index !592
  %j15 = alloca i32, align 4, !llfi_index !593
  %i16 = alloca i32, align 4, !llfi_index !594
  %j17 = alloca i32, align 4, !llfi_index !595
  %i18 = alloca i32, align 4, !llfi_index !596
  %j19 = alloca i32, align 4, !llfi_index !597
  store i32* %input_itemsets, i32** %1, align 8, !llfi_index !598
  store i32* %output_itemsets, i32** %2, align 8, !llfi_index !599
  store i32* %referrence, i32** %3, align 8, !llfi_index !600
  store i32 %max_rows, i32* %4, align 4, !llfi_index !601
  store i32 %max_cols, i32* %5, align 4, !llfi_index !602
  store i32 %penalty, i32* %6, align 4, !llfi_index !603
  store i32 1, i32* %blk, align 4, !llfi_index !604
  br label %7, !llfi_index !605

; <label>:7                                       ; preds = %366, %0
  %8 = load i32* %blk, align 4, !llfi_index !606
  %9 = load i32* %blk, align 4, !llfi_index !606
  %10 = load i32* %5, align 4, !llfi_index !607
  %11 = load i32* %5, align 4, !llfi_index !607
  %12 = sub nsw i32 %10, 1, !llfi_index !608
  %13 = sub nsw i32 %11, 1, !llfi_index !608
  %14 = sdiv i32 %12, 16, !llfi_index !609
  %15 = sdiv i32 %13, 16, !llfi_index !609
  %AI = alloca i1
  store i1 true, i1* %AI
  %16 = icmp sle i32 %8, %14, !llfi_index !610
  %17 = icmp sle i32 %9, %15, !llfi_index !610
  %check_cmp = icmp eq i1 %16, %17
  %loadone = load i1* %AI
  %check_and = and i1 %check_cmp, %loadone
  store i1 %check_and, i1* %AI
  br i1 %16, label %18, label %371, !llfi_index !611

; <label>:18                                      ; preds = %7
  store i32 0, i32* %b_index_x, align 4, !llfi_index !612
  br label %19, !llfi_index !613

; <label>:19                                      ; preds = %360, %18
  %20 = load i32* %b_index_x, align 4, !llfi_index !614
  %21 = load i32* %b_index_x, align 4, !llfi_index !614
  %22 = load i32* %blk, align 4, !llfi_index !615
  %23 = load i32* %blk, align 4, !llfi_index !615
  %24 = icmp slt i32 %20, %22, !llfi_index !616
  %25 = icmp slt i32 %21, %23, !llfi_index !616
  %check_cmp1 = icmp eq i1 %24, %25
  %loadone2 = load i1* %AI
  %check_and3 = and i1 %check_cmp1, %loadone2
  store i1 %check_and3, i1* %AI
  br i1 %24, label %26, label %365, !llfi_index !617

; <label>:26                                      ; preds = %19
  %27 = load i32* %blk, align 4, !llfi_index !618
  %28 = load i32* %blk, align 4, !llfi_index !618
  %29 = sub nsw i32 %27, 1, !llfi_index !619
  %30 = sub nsw i32 %28, 1, !llfi_index !619
  %31 = load i32* %b_index_x, align 4, !llfi_index !620
  %32 = load i32* %b_index_x, align 4, !llfi_index !620
  %33 = sub nsw i32 %29, %31, !llfi_index !621
  %34 = sub nsw i32 %30, %32, !llfi_index !621
  %check_cmp4 = icmp eq i32 %33, %34
  %loadone5 = load i1* %AI
  %check_and6 = and i1 %check_cmp4, %loadone5
  store i1 %check_and6, i1* %AI
  store i32 %33, i32* %b_index_y, align 4, !llfi_index !622
  store i32 0, i32* %i, align 4, !llfi_index !623
  br label %35, !llfi_index !624

; <label>:35                                      ; preds = %99, %26
  %36 = load i32* %i, align 4, !llfi_index !625
  %37 = load i32* %i, align 4, !llfi_index !625
  %38 = icmp slt i32 %36, 16, !llfi_index !626
  %39 = icmp slt i32 %37, 16, !llfi_index !626
  %check_cmp7 = icmp eq i1 %38, %39
  %loadone8 = load i1* %AI
  %check_and9 = and i1 %check_cmp7, %loadone8
  store i1 %check_and9, i1* %AI
  br i1 %38, label %40, label %104, !llfi_index !627

; <label>:40                                      ; preds = %35
  store i32 0, i32* %j, align 4, !llfi_index !628
  br label %41, !llfi_index !629

; <label>:41                                      ; preds = %93, %40
  %42 = load i32* %j, align 4, !llfi_index !630
  %43 = load i32* %j, align 4, !llfi_index !630
  %44 = icmp slt i32 %42, 16, !llfi_index !631
  %45 = icmp slt i32 %43, 16, !llfi_index !631
  %check_cmp10 = icmp eq i1 %44, %45
  %loadone11 = load i1* %AI
  %check_and12 = and i1 %check_cmp10, %loadone11
  store i1 %check_and12, i1* %AI
  br i1 %44, label %46, label %98, !llfi_index !632

; <label>:46                                      ; preds = %41
  %47 = load i32* %5, align 4, !llfi_index !633
  %48 = load i32* %5, align 4, !llfi_index !633
  %49 = load i32* %b_index_y, align 4, !llfi_index !634
  %50 = load i32* %b_index_y, align 4, !llfi_index !634
  %51 = mul nsw i32 %49, 16, !llfi_index !635
  %52 = mul nsw i32 %50, 16, !llfi_index !635
  %53 = load i32* %i, align 4, !llfi_index !636
  %54 = load i32* %i, align 4, !llfi_index !636
  %55 = add nsw i32 %51, %53, !llfi_index !637
  %56 = add nsw i32 %52, %54, !llfi_index !637
  %57 = add nsw i32 %55, 1, !llfi_index !638
  %58 = add nsw i32 %56, 1, !llfi_index !638
  %59 = mul nsw i32 %47, %57, !llfi_index !639
  %60 = mul nsw i32 %48, %58, !llfi_index !639
  %61 = load i32* %b_index_x, align 4, !llfi_index !640
  %62 = load i32* %b_index_x, align 4, !llfi_index !640
  %63 = mul nsw i32 %61, 16, !llfi_index !641
  %64 = mul nsw i32 %62, 16, !llfi_index !641
  %65 = add nsw i32 %59, %63, !llfi_index !642
  %66 = add nsw i32 %60, %64, !llfi_index !642
  %67 = load i32* %j, align 4, !llfi_index !643
  %68 = load i32* %j, align 4, !llfi_index !643
  %69 = add nsw i32 %65, %67, !llfi_index !644
  %70 = add nsw i32 %66, %68, !llfi_index !644
  %71 = add nsw i32 %69, 1, !llfi_index !645
  %72 = add nsw i32 %70, 1, !llfi_index !645
  %73 = sext i32 %71 to i64, !llfi_index !646
  %74 = sext i32 %72 to i64, !llfi_index !646
  %75 = load i32** %3, align 8, !llfi_index !647
  %76 = load i32** %3, align 8, !llfi_index !647
  %77 = getelementptr inbounds i32* %75, i64 %73, !llfi_index !648
  %78 = getelementptr inbounds i32* %76, i64 %74, !llfi_index !648
  %79 = load i32* %77, align 4, !llfi_index !649
  %80 = load i32* %78, align 4, !llfi_index !649
  %check_cmp13 = icmp eq i32 %79, %80
  %loadone14 = load i1* %AI
  %check_and15 = and i1 %check_cmp13, %loadone14
  %81 = load i32* %i, align 4, !llfi_index !650
  %82 = load i32* %i, align 4, !llfi_index !650
  %83 = mul nsw i32 %81, 16, !llfi_index !651
  %84 = mul nsw i32 %82, 16, !llfi_index !651
  %85 = load i32* %j, align 4, !llfi_index !652
  %86 = load i32* %j, align 4, !llfi_index !652
  %87 = add nsw i32 %83, %85, !llfi_index !653
  %88 = add nsw i32 %84, %86, !llfi_index !653
  %89 = sext i32 %87 to i64, !llfi_index !654
  %90 = sext i32 %88 to i64, !llfi_index !654
  %91 = getelementptr inbounds [256 x i32]* %reference_l, i32 0, i64 %89, !llfi_index !655
  %92 = getelementptr inbounds [256 x i32]* %reference_l, i32 0, i64 %90, !llfi_index !655
  %check_cmp16 = icmp eq i32* %91, %92
  %check_and17 = and i1 %check_cmp16, %check_and15
  store i1 %check_and17, i1* %AI
  store i32 %79, i32* %91, align 4, !llfi_index !656
  br label %93, !llfi_index !657

; <label>:93                                      ; preds = %46
  %94 = load i32* %j, align 4, !llfi_index !658
  %95 = load i32* %j, align 4, !llfi_index !658
  %96 = add nsw i32 %94, 1, !llfi_index !659
  %97 = add nsw i32 %95, 1, !llfi_index !659
  %check_cmp18 = icmp eq i32 %96, %97
  %loadone19 = load i1* %AI
  %check_and20 = and i1 %check_cmp18, %loadone19
  store i1 %check_and20, i1* %AI
  store i32 %96, i32* %j, align 4, !llfi_index !660
  br label %41, !llfi_index !661

; <label>:98                                      ; preds = %41
  br label %99, !llfi_index !662

; <label>:99                                      ; preds = %98
  %100 = load i32* %i, align 4, !llfi_index !663
  %101 = load i32* %i, align 4, !llfi_index !663
  %102 = add nsw i32 %100, 1, !llfi_index !664
  %103 = add nsw i32 %101, 1, !llfi_index !664
  %check_cmp21 = icmp eq i32 %102, %103
  %loadone22 = load i1* %AI
  %check_and23 = and i1 %check_cmp21, %loadone22
  store i1 %check_and23, i1* %AI
  store i32 %102, i32* %i, align 4, !llfi_index !665
  br label %35, !llfi_index !666

; <label>:104                                     ; preds = %35
  store i32 0, i32* %i1, align 4, !llfi_index !667
  br label %105, !llfi_index !668

; <label>:105                                     ; preds = %165, %104
  %106 = load i32* %i1, align 4, !llfi_index !669
  %107 = load i32* %i1, align 4, !llfi_index !669
  %108 = icmp slt i32 %106, 17, !llfi_index !670
  %109 = icmp slt i32 %107, 17, !llfi_index !670
  %check_cmp24 = icmp eq i1 %108, %109
  %loadone25 = load i1* %AI
  %check_and26 = and i1 %check_cmp24, %loadone25
  store i1 %check_and26, i1* %AI
  br i1 %108, label %110, label %170, !llfi_index !671

; <label>:110                                     ; preds = %105
  store i32 0, i32* %j2, align 4, !llfi_index !672
  br label %111, !llfi_index !673

; <label>:111                                     ; preds = %159, %110
  %112 = load i32* %j2, align 4, !llfi_index !674
  %113 = load i32* %j2, align 4, !llfi_index !674
  %114 = icmp slt i32 %112, 17, !llfi_index !675
  %115 = icmp slt i32 %113, 17, !llfi_index !675
  %check_cmp27 = icmp eq i1 %114, %115
  %loadone28 = load i1* %AI
  %check_and29 = and i1 %check_cmp27, %loadone28
  store i1 %check_and29, i1* %AI
  br i1 %114, label %116, label %164, !llfi_index !676

; <label>:116                                     ; preds = %111
  %117 = load i32* %5, align 4, !llfi_index !677
  %118 = load i32* %5, align 4, !llfi_index !677
  %119 = load i32* %b_index_y, align 4, !llfi_index !678
  %120 = load i32* %b_index_y, align 4, !llfi_index !678
  %121 = mul nsw i32 %119, 16, !llfi_index !679
  %122 = mul nsw i32 %120, 16, !llfi_index !679
  %123 = load i32* %i1, align 4, !llfi_index !680
  %124 = load i32* %i1, align 4, !llfi_index !680
  %125 = add nsw i32 %121, %123, !llfi_index !681
  %126 = add nsw i32 %122, %124, !llfi_index !681
  %127 = mul nsw i32 %117, %125, !llfi_index !682
  %128 = mul nsw i32 %118, %126, !llfi_index !682
  %129 = load i32* %b_index_x, align 4, !llfi_index !683
  %130 = load i32* %b_index_x, align 4, !llfi_index !683
  %131 = mul nsw i32 %129, 16, !llfi_index !684
  %132 = mul nsw i32 %130, 16, !llfi_index !684
  %133 = add nsw i32 %127, %131, !llfi_index !685
  %134 = add nsw i32 %128, %132, !llfi_index !685
  %135 = load i32* %j2, align 4, !llfi_index !686
  %136 = load i32* %j2, align 4, !llfi_index !686
  %137 = add nsw i32 %133, %135, !llfi_index !687
  %138 = add nsw i32 %134, %136, !llfi_index !687
  %139 = sext i32 %137 to i64, !llfi_index !688
  %140 = sext i32 %138 to i64, !llfi_index !688
  %141 = load i32** %1, align 8, !llfi_index !689
  %142 = load i32** %1, align 8, !llfi_index !689
  %143 = getelementptr inbounds i32* %141, i64 %139, !llfi_index !690
  %144 = getelementptr inbounds i32* %142, i64 %140, !llfi_index !690
  %145 = load i32* %143, align 4, !llfi_index !691
  %146 = load i32* %144, align 4, !llfi_index !691
  %check_cmp30 = icmp eq i32 %145, %146
  %loadone31 = load i1* %AI
  %check_and32 = and i1 %check_cmp30, %loadone31
  %147 = load i32* %i1, align 4, !llfi_index !692
  %148 = load i32* %i1, align 4, !llfi_index !692
  %149 = mul nsw i32 %147, 17, !llfi_index !693
  %150 = mul nsw i32 %148, 17, !llfi_index !693
  %151 = load i32* %j2, align 4, !llfi_index !694
  %152 = load i32* %j2, align 4, !llfi_index !694
  %153 = add nsw i32 %149, %151, !llfi_index !695
  %154 = add nsw i32 %150, %152, !llfi_index !695
  %155 = sext i32 %153 to i64, !llfi_index !696
  %156 = sext i32 %154 to i64, !llfi_index !696
  %157 = getelementptr inbounds [289 x i32]* %input_itemsets_l, i32 0, i64 %155, !llfi_index !697
  %158 = getelementptr inbounds [289 x i32]* %input_itemsets_l, i32 0, i64 %156, !llfi_index !697
  %check_cmp33 = icmp eq i32* %157, %158
  %check_and34 = and i1 %check_cmp33, %check_and32
  store i1 %check_and34, i1* %AI
  store i32 %145, i32* %157, align 4, !llfi_index !698
  br label %159, !llfi_index !699

; <label>:159                                     ; preds = %116
  %160 = load i32* %j2, align 4, !llfi_index !700
  %161 = load i32* %j2, align 4, !llfi_index !700
  %162 = add nsw i32 %160, 1, !llfi_index !701
  %163 = add nsw i32 %161, 1, !llfi_index !701
  %check_cmp35 = icmp eq i32 %162, %163
  %loadone36 = load i1* %AI
  %check_and37 = and i1 %check_cmp35, %loadone36
  store i1 %check_and37, i1* %AI
  store i32 %162, i32* %j2, align 4, !llfi_index !702
  br label %111, !llfi_index !703

; <label>:164                                     ; preds = %111
  br label %165, !llfi_index !704

; <label>:165                                     ; preds = %164
  %166 = load i32* %i1, align 4, !llfi_index !705
  %167 = load i32* %i1, align 4, !llfi_index !705
  %168 = add nsw i32 %166, 1, !llfi_index !706
  %169 = add nsw i32 %167, 1, !llfi_index !706
  %check_cmp38 = icmp eq i32 %168, %169
  %loadone39 = load i1* %AI
  %check_and40 = and i1 %check_cmp38, %loadone39
  store i1 %check_and40, i1* %AI
  store i32 %168, i32* %i1, align 4, !llfi_index !707
  br label %105, !llfi_index !708

; <label>:170                                     ; preds = %105
  store i32 1, i32* %i3, align 4, !llfi_index !709
  br label %171, !llfi_index !710

; <label>:171                                     ; preds = %280, %170
  %172 = load i32* %i3, align 4, !llfi_index !711
  %173 = load i32* %i3, align 4, !llfi_index !711
  %174 = icmp slt i32 %172, 17, !llfi_index !712
  %175 = icmp slt i32 %173, 17, !llfi_index !712
  %check_cmp41 = icmp eq i1 %174, %175
  %loadone42 = load i1* %AI
  %check_and43 = and i1 %check_cmp41, %loadone42
  store i1 %check_and43, i1* %AI
  br i1 %174, label %176, label %285, !llfi_index !713

; <label>:176                                     ; preds = %171
  store i32 1, i32* %j4, align 4, !llfi_index !714
  br label %177, !llfi_index !715

; <label>:177                                     ; preds = %274, %176
  %178 = load i32* %j4, align 4, !llfi_index !716
  %179 = load i32* %j4, align 4, !llfi_index !716
  %180 = icmp slt i32 %178, 17, !llfi_index !717
  %181 = icmp slt i32 %179, 17, !llfi_index !717
  %check_cmp44 = icmp eq i1 %180, %181
  %loadone45 = load i1* %AI
  %check_and46 = and i1 %check_cmp44, %loadone45
  store i1 %check_and46, i1* %AI
  br i1 %180, label %182, label %279, !llfi_index !718

; <label>:182                                     ; preds = %177
  %183 = load i32* %i3, align 4, !llfi_index !719
  %184 = load i32* %i3, align 4, !llfi_index !719
  %185 = sub nsw i32 %183, 1, !llfi_index !720
  %186 = sub nsw i32 %184, 1, !llfi_index !720
  %187 = mul nsw i32 %185, 17, !llfi_index !721
  %188 = mul nsw i32 %186, 17, !llfi_index !721
  %189 = load i32* %j4, align 4, !llfi_index !722
  %190 = load i32* %j4, align 4, !llfi_index !722
  %191 = add nsw i32 %187, %189, !llfi_index !723
  %192 = add nsw i32 %188, %190, !llfi_index !723
  %193 = sub nsw i32 %191, 1, !llfi_index !724
  %194 = sub nsw i32 %192, 1, !llfi_index !724
  %195 = sext i32 %193 to i64, !llfi_index !725
  %196 = sext i32 %194 to i64, !llfi_index !725
  %197 = getelementptr inbounds [289 x i32]* %input_itemsets_l, i32 0, i64 %195, !llfi_index !726
  %198 = getelementptr inbounds [289 x i32]* %input_itemsets_l, i32 0, i64 %196, !llfi_index !726
  %199 = load i32* %197, align 4, !llfi_index !727
  %200 = load i32* %198, align 4, !llfi_index !727
  %201 = load i32* %i3, align 4, !llfi_index !728
  %202 = load i32* %i3, align 4, !llfi_index !728
  %203 = sub nsw i32 %201, 1, !llfi_index !729
  %204 = sub nsw i32 %202, 1, !llfi_index !729
  %205 = mul nsw i32 %203, 16, !llfi_index !730
  %206 = mul nsw i32 %204, 16, !llfi_index !730
  %207 = load i32* %j4, align 4, !llfi_index !731
  %208 = load i32* %j4, align 4, !llfi_index !731
  %209 = add nsw i32 %205, %207, !llfi_index !732
  %210 = add nsw i32 %206, %208, !llfi_index !732
  %211 = sub nsw i32 %209, 1, !llfi_index !733
  %212 = sub nsw i32 %210, 1, !llfi_index !733
  %213 = sext i32 %211 to i64, !llfi_index !734
  %214 = sext i32 %212 to i64, !llfi_index !734
  %215 = getelementptr inbounds [256 x i32]* %reference_l, i32 0, i64 %213, !llfi_index !735
  %216 = getelementptr inbounds [256 x i32]* %reference_l, i32 0, i64 %214, !llfi_index !735
  %217 = load i32* %215, align 4, !llfi_index !736
  %218 = load i32* %216, align 4, !llfi_index !736
  %219 = add nsw i32 %199, %217, !llfi_index !737
  %220 = add nsw i32 %200, %218, !llfi_index !737
  %check_cmp47 = icmp eq i32 %219, %220
  %loadone48 = load i1* %AI
  %check_and49 = and i1 %check_cmp47, %loadone48
  %221 = load i32* %i3, align 4, !llfi_index !738
  %222 = load i32* %i3, align 4, !llfi_index !738
  %223 = mul nsw i32 %221, 17, !llfi_index !739
  %224 = mul nsw i32 %222, 17, !llfi_index !739
  %225 = load i32* %j4, align 4, !llfi_index !740
  %226 = load i32* %j4, align 4, !llfi_index !740
  %227 = add nsw i32 %223, %225, !llfi_index !741
  %228 = add nsw i32 %224, %226, !llfi_index !741
  %229 = sub nsw i32 %227, 1, !llfi_index !742
  %230 = sub nsw i32 %228, 1, !llfi_index !742
  %231 = sext i32 %229 to i64, !llfi_index !743
  %232 = sext i32 %230 to i64, !llfi_index !743
  %233 = getelementptr inbounds [289 x i32]* %input_itemsets_l, i32 0, i64 %231, !llfi_index !744
  %234 = getelementptr inbounds [289 x i32]* %input_itemsets_l, i32 0, i64 %232, !llfi_index !744
  %235 = load i32* %233, align 4, !llfi_index !745
  %236 = load i32* %234, align 4, !llfi_index !745
  %237 = load i32* %6, align 4, !llfi_index !746
  %238 = load i32* %6, align 4, !llfi_index !746
  %239 = sub nsw i32 %235, %237, !llfi_index !747
  %240 = sub nsw i32 %236, %238, !llfi_index !747
  %check_cmp50 = icmp eq i32 %239, %240
  %check_and51 = and i1 %check_cmp50, %check_and49
  %241 = load i32* %i3, align 4, !llfi_index !748
  %242 = load i32* %i3, align 4, !llfi_index !748
  %243 = sub nsw i32 %241, 1, !llfi_index !749
  %244 = sub nsw i32 %242, 1, !llfi_index !749
  %245 = mul nsw i32 %243, 17, !llfi_index !750
  %246 = mul nsw i32 %244, 17, !llfi_index !750
  %247 = load i32* %j4, align 4, !llfi_index !751
  %248 = load i32* %j4, align 4, !llfi_index !751
  %249 = add nsw i32 %245, %247, !llfi_index !752
  %250 = add nsw i32 %246, %248, !llfi_index !752
  %251 = sext i32 %249 to i64, !llfi_index !753
  %252 = sext i32 %250 to i64, !llfi_index !753
  %253 = getelementptr inbounds [289 x i32]* %input_itemsets_l, i32 0, i64 %251, !llfi_index !754
  %254 = getelementptr inbounds [289 x i32]* %input_itemsets_l, i32 0, i64 %252, !llfi_index !754
  %255 = load i32* %253, align 4, !llfi_index !755
  %256 = load i32* %254, align 4, !llfi_index !755
  %257 = load i32* %6, align 4, !llfi_index !756
  %258 = load i32* %6, align 4, !llfi_index !756
  %259 = sub nsw i32 %255, %257, !llfi_index !757
  %260 = sub nsw i32 %256, %258, !llfi_index !757
  %check_cmp52 = icmp eq i32 %259, %260
  %check_and53 = and i1 %check_cmp52, %check_and51
  %261 = call i32 @_Z7maximumiii(i32 %219, i32 %239, i32 %259), !llfi_index !758
  %262 = load i32* %i3, align 4, !llfi_index !759
  %263 = load i32* %i3, align 4, !llfi_index !759
  %264 = mul nsw i32 %262, 17, !llfi_index !760
  %265 = mul nsw i32 %263, 17, !llfi_index !760
  %266 = load i32* %j4, align 4, !llfi_index !761
  %267 = load i32* %j4, align 4, !llfi_index !761
  %268 = add nsw i32 %264, %266, !llfi_index !762
  %269 = add nsw i32 %265, %267, !llfi_index !762
  %270 = sext i32 %268 to i64, !llfi_index !763
  %271 = sext i32 %269 to i64, !llfi_index !763
  %272 = getelementptr inbounds [289 x i32]* %input_itemsets_l, i32 0, i64 %270, !llfi_index !764
  %273 = getelementptr inbounds [289 x i32]* %input_itemsets_l, i32 0, i64 %271, !llfi_index !764
  %check_cmp54 = icmp eq i32* %272, %273
  %check_and55 = and i1 %check_cmp54, %check_and53
  store i1 %check_and55, i1* %AI
  store i32 %261, i32* %272, align 4, !llfi_index !765
  br label %274, !llfi_index !766

; <label>:274                                     ; preds = %182
  %275 = load i32* %j4, align 4, !llfi_index !767
  %276 = load i32* %j4, align 4, !llfi_index !767
  %277 = add nsw i32 %275, 1, !llfi_index !768
  %278 = add nsw i32 %276, 1, !llfi_index !768
  %check_cmp56 = icmp eq i32 %277, %278
  %loadone57 = load i1* %AI
  %check_and58 = and i1 %check_cmp56, %loadone57
  store i1 %check_and58, i1* %AI
  store i32 %277, i32* %j4, align 4, !llfi_index !769
  br label %177, !llfi_index !770

; <label>:279                                     ; preds = %177
  br label %280, !llfi_index !771

; <label>:280                                     ; preds = %279
  %281 = load i32* %i3, align 4, !llfi_index !772
  %282 = load i32* %i3, align 4, !llfi_index !772
  %283 = add nsw i32 %281, 1, !llfi_index !773
  %284 = add nsw i32 %282, 1, !llfi_index !773
  %check_cmp59 = icmp eq i32 %283, %284
  %loadone60 = load i1* %AI
  %check_and61 = and i1 %check_cmp59, %loadone60
  store i1 %check_and61, i1* %AI
  store i32 %283, i32* %i3, align 4, !llfi_index !774
  br label %171, !llfi_index !775

; <label>:285                                     ; preds = %171
  store i32 0, i32* %i5, align 4, !llfi_index !776
  br label %286, !llfi_index !777

; <label>:286                                     ; preds = %354, %285
  %287 = load i32* %i5, align 4, !llfi_index !778
  %288 = load i32* %i5, align 4, !llfi_index !778
  %289 = icmp slt i32 %287, 16, !llfi_index !779
  %290 = icmp slt i32 %288, 16, !llfi_index !779
  %check_cmp62 = icmp eq i1 %289, %290
  %loadone63 = load i1* %AI
  %check_and64 = and i1 %check_cmp62, %loadone63
  store i1 %check_and64, i1* %AI
  br i1 %289, label %291, label %359, !llfi_index !780

; <label>:291                                     ; preds = %286
  store i32 0, i32* %j6, align 4, !llfi_index !781
  br label %292, !llfi_index !782

; <label>:292                                     ; preds = %348, %291
  %293 = load i32* %j6, align 4, !llfi_index !783
  %294 = load i32* %j6, align 4, !llfi_index !783
  %295 = icmp slt i32 %293, 16, !llfi_index !784
  %296 = icmp slt i32 %294, 16, !llfi_index !784
  %check_cmp65 = icmp eq i1 %295, %296
  %loadone66 = load i1* %AI
  %check_and67 = and i1 %check_cmp65, %loadone66
  store i1 %check_and67, i1* %AI
  br i1 %295, label %297, label %353, !llfi_index !785

; <label>:297                                     ; preds = %292
  %298 = load i32* %i5, align 4, !llfi_index !786
  %299 = load i32* %i5, align 4, !llfi_index !786
  %300 = add nsw i32 %298, 1, !llfi_index !787
  %301 = add nsw i32 %299, 1, !llfi_index !787
  %302 = mul nsw i32 %300, 17, !llfi_index !788
  %303 = mul nsw i32 %301, 17, !llfi_index !788
  %304 = load i32* %j6, align 4, !llfi_index !789
  %305 = load i32* %j6, align 4, !llfi_index !789
  %306 = add nsw i32 %302, %304, !llfi_index !790
  %307 = add nsw i32 %303, %305, !llfi_index !790
  %308 = add nsw i32 %306, 1, !llfi_index !791
  %309 = add nsw i32 %307, 1, !llfi_index !791
  %310 = sext i32 %308 to i64, !llfi_index !792
  %311 = sext i32 %309 to i64, !llfi_index !792
  %312 = getelementptr inbounds [289 x i32]* %input_itemsets_l, i32 0, i64 %310, !llfi_index !793
  %313 = getelementptr inbounds [289 x i32]* %input_itemsets_l, i32 0, i64 %311, !llfi_index !793
  %314 = load i32* %312, align 4, !llfi_index !794
  %315 = load i32* %313, align 4, !llfi_index !794
  %check_cmp68 = icmp eq i32 %314, %315
  %loadone69 = load i1* %AI
  %check_and70 = and i1 %check_cmp68, %loadone69
  %316 = load i32* %5, align 4, !llfi_index !795
  %317 = load i32* %5, align 4, !llfi_index !795
  %318 = load i32* %b_index_y, align 4, !llfi_index !796
  %319 = load i32* %b_index_y, align 4, !llfi_index !796
  %320 = mul nsw i32 %318, 16, !llfi_index !797
  %321 = mul nsw i32 %319, 16, !llfi_index !797
  %322 = load i32* %i5, align 4, !llfi_index !798
  %323 = load i32* %i5, align 4, !llfi_index !798
  %324 = add nsw i32 %320, %322, !llfi_index !799
  %325 = add nsw i32 %321, %323, !llfi_index !799
  %326 = add nsw i32 %324, 1, !llfi_index !800
  %327 = add nsw i32 %325, 1, !llfi_index !800
  %328 = mul nsw i32 %316, %326, !llfi_index !801
  %329 = mul nsw i32 %317, %327, !llfi_index !801
  %330 = load i32* %b_index_x, align 4, !llfi_index !802
  %331 = load i32* %b_index_x, align 4, !llfi_index !802
  %332 = mul nsw i32 %330, 16, !llfi_index !803
  %333 = mul nsw i32 %331, 16, !llfi_index !803
  %334 = add nsw i32 %328, %332, !llfi_index !804
  %335 = add nsw i32 %329, %333, !llfi_index !804
  %336 = load i32* %j6, align 4, !llfi_index !805
  %337 = load i32* %j6, align 4, !llfi_index !805
  %338 = add nsw i32 %334, %336, !llfi_index !806
  %339 = add nsw i32 %335, %337, !llfi_index !806
  %340 = add nsw i32 %338, 1, !llfi_index !807
  %341 = add nsw i32 %339, 1, !llfi_index !807
  %342 = sext i32 %340 to i64, !llfi_index !808
  %343 = sext i32 %341 to i64, !llfi_index !808
  %344 = load i32** %1, align 8, !llfi_index !809
  %345 = load i32** %1, align 8, !llfi_index !809
  %346 = getelementptr inbounds i32* %344, i64 %342, !llfi_index !810
  %347 = getelementptr inbounds i32* %345, i64 %343, !llfi_index !810
  %check_cmp71 = icmp eq i32* %346, %347
  %check_and72 = and i1 %check_cmp71, %check_and70
  store i1 %check_and72, i1* %AI
  store i32 %314, i32* %346, align 4, !llfi_index !811
  br label %348, !llfi_index !812

; <label>:348                                     ; preds = %297
  %349 = load i32* %j6, align 4, !llfi_index !813
  %350 = load i32* %j6, align 4, !llfi_index !813
  %351 = add nsw i32 %349, 1, !llfi_index !814
  %352 = add nsw i32 %350, 1, !llfi_index !814
  %check_cmp73 = icmp eq i32 %351, %352
  %loadone74 = load i1* %AI
  %check_and75 = and i1 %check_cmp73, %loadone74
  store i1 %check_and75, i1* %AI
  store i32 %351, i32* %j6, align 4, !llfi_index !815
  br label %292, !llfi_index !816

; <label>:353                                     ; preds = %292
  br label %354, !llfi_index !817

; <label>:354                                     ; preds = %353
  %355 = load i32* %i5, align 4, !llfi_index !818
  %356 = load i32* %i5, align 4, !llfi_index !818
  %357 = add nsw i32 %355, 1, !llfi_index !819
  %358 = add nsw i32 %356, 1, !llfi_index !819
  %check_cmp76 = icmp eq i32 %357, %358
  %loadone77 = load i1* %AI
  %check_and78 = and i1 %check_cmp76, %loadone77
  store i1 %check_and78, i1* %AI
  store i32 %357, i32* %i5, align 4, !llfi_index !820
  br label %286, !llfi_index !821

; <label>:359                                     ; preds = %286
  br label %360, !llfi_index !822

; <label>:360                                     ; preds = %359
  %361 = load i32* %b_index_x, align 4, !llfi_index !823
  %362 = load i32* %b_index_x, align 4, !llfi_index !823
  %363 = add nsw i32 %361, 1, !llfi_index !824
  %364 = add nsw i32 %362, 1, !llfi_index !824
  %check_cmp79 = icmp eq i32 %363, %364
  %loadone80 = load i1* %AI
  %check_and81 = and i1 %check_cmp79, %loadone80
  store i1 %check_and81, i1* %AI
  store i32 %363, i32* %b_index_x, align 4, !llfi_index !825
  br label %19, !llfi_index !826

; <label>:365                                     ; preds = %19
  br label %366, !llfi_index !827

; <label>:366                                     ; preds = %365
  %367 = load i32* %blk, align 4, !llfi_index !828
  %368 = load i32* %blk, align 4, !llfi_index !828
  %369 = add nsw i32 %367, 1, !llfi_index !829
  %370 = add nsw i32 %368, 1, !llfi_index !829
  %check_cmp82 = icmp eq i32 %369, %370
  %loadone83 = load i1* %AI
  %check_and84 = and i1 %check_cmp82, %loadone83
  store i1 %check_and84, i1* %AI
  store i32 %369, i32* %blk, align 4, !llfi_index !830
  br label %7, !llfi_index !831

; <label>:371                                     ; preds = %7
  %372 = call i32 (i8*, ...)* @printf(i8* getelementptr inbounds ([32 x i8]* @.str4, i32 0, i32 0)), !llfi_index !832
  store i32 2, i32* %blk7, align 4, !llfi_index !833
  br label %373, !llfi_index !834

; <label>:373                                     ; preds = %748, %371
  %374 = load i32* %blk7, align 4, !llfi_index !835
  %375 = load i32* %blk7, align 4, !llfi_index !835
  %376 = load i32* %5, align 4, !llfi_index !836
  %377 = load i32* %5, align 4, !llfi_index !836
  %378 = sub nsw i32 %376, 1, !llfi_index !837
  %379 = sub nsw i32 %377, 1, !llfi_index !837
  %380 = sdiv i32 %378, 16, !llfi_index !838
  %381 = sdiv i32 %379, 16, !llfi_index !838
  %382 = icmp sle i32 %374, %380, !llfi_index !839
  %383 = icmp sle i32 %375, %381, !llfi_index !839
  %check_cmp85 = icmp eq i1 %382, %383
  %loadone86 = load i1* %AI
  %check_and87 = and i1 %check_cmp85, %loadone86
  store i1 %check_and87, i1* %AI
  br i1 %382, label %384, label %753, !llfi_index !840

; <label>:384                                     ; preds = %373
  %385 = load i32* %blk7, align 4, !llfi_index !841
  %386 = load i32* %blk7, align 4, !llfi_index !841
  %387 = sub nsw i32 %385, 1, !llfi_index !842
  %388 = sub nsw i32 %386, 1, !llfi_index !842
  %check_cmp88 = icmp eq i32 %387, %388
  %loadone89 = load i1* %AI
  %check_and90 = and i1 %check_cmp88, %loadone89
  store i1 %check_and90, i1* %AI
  store i32 %387, i32* %b_index_x8, align 4, !llfi_index !843
  br label %389, !llfi_index !844

; <label>:389                                     ; preds = %742, %384
  %390 = load i32* %b_index_x8, align 4, !llfi_index !845
  %391 = load i32* %b_index_x8, align 4, !llfi_index !845
  %392 = load i32* %5, align 4, !llfi_index !846
  %393 = load i32* %5, align 4, !llfi_index !846
  %394 = sub nsw i32 %392, 1, !llfi_index !847
  %395 = sub nsw i32 %393, 1, !llfi_index !847
  %396 = sdiv i32 %394, 16, !llfi_index !848
  %397 = sdiv i32 %395, 16, !llfi_index !848
  %398 = icmp slt i32 %390, %396, !llfi_index !849
  %399 = icmp slt i32 %391, %397, !llfi_index !849
  %check_cmp91 = icmp eq i1 %398, %399
  %loadone92 = load i1* %AI
  %check_and93 = and i1 %check_cmp91, %loadone92
  store i1 %check_and93, i1* %AI
  br i1 %398, label %400, label %747, !llfi_index !850

; <label>:400                                     ; preds = %389
  %401 = load i32* %5, align 4, !llfi_index !851
  %402 = load i32* %5, align 4, !llfi_index !851
  %403 = sub nsw i32 %401, 1, !llfi_index !852
  %404 = sub nsw i32 %402, 1, !llfi_index !852
  %405 = sdiv i32 %403, 16, !llfi_index !853
  %406 = sdiv i32 %404, 16, !llfi_index !853
  %407 = load i32* %blk7, align 4, !llfi_index !854
  %408 = load i32* %blk7, align 4, !llfi_index !854
  %409 = add nsw i32 %405, %407, !llfi_index !855
  %410 = add nsw i32 %406, %408, !llfi_index !855
  %411 = sub nsw i32 %409, 2, !llfi_index !856
  %412 = sub nsw i32 %410, 2, !llfi_index !856
  %413 = load i32* %b_index_x8, align 4, !llfi_index !857
  %414 = load i32* %b_index_x8, align 4, !llfi_index !857
  %415 = sub nsw i32 %411, %413, !llfi_index !858
  %416 = sub nsw i32 %412, %414, !llfi_index !858
  %check_cmp94 = icmp eq i32 %415, %416
  %loadone95 = load i1* %AI
  %check_and96 = and i1 %check_cmp94, %loadone95
  store i1 %check_and96, i1* %AI
  store i32 %415, i32* %b_index_y9, align 4, !llfi_index !859
  store i32 0, i32* %i12, align 4, !llfi_index !860
  br label %417, !llfi_index !861

; <label>:417                                     ; preds = %481, %400
  %418 = load i32* %i12, align 4, !llfi_index !862
  %419 = load i32* %i12, align 4, !llfi_index !862
  %420 = icmp slt i32 %418, 16, !llfi_index !863
  %421 = icmp slt i32 %419, 16, !llfi_index !863
  %check_cmp97 = icmp eq i1 %420, %421
  %loadone98 = load i1* %AI
  %check_and99 = and i1 %check_cmp97, %loadone98
  store i1 %check_and99, i1* %AI
  br i1 %420, label %422, label %486, !llfi_index !864

; <label>:422                                     ; preds = %417
  store i32 0, i32* %j13, align 4, !llfi_index !865
  br label %423, !llfi_index !866

; <label>:423                                     ; preds = %475, %422
  %424 = load i32* %j13, align 4, !llfi_index !867
  %425 = load i32* %j13, align 4, !llfi_index !867
  %426 = icmp slt i32 %424, 16, !llfi_index !868
  %427 = icmp slt i32 %425, 16, !llfi_index !868
  %check_cmp100 = icmp eq i1 %426, %427
  %loadone101 = load i1* %AI
  %check_and102 = and i1 %check_cmp100, %loadone101
  store i1 %check_and102, i1* %AI
  br i1 %426, label %428, label %480, !llfi_index !869

; <label>:428                                     ; preds = %423
  %429 = load i32* %5, align 4, !llfi_index !870
  %430 = load i32* %5, align 4, !llfi_index !870
  %431 = load i32* %b_index_y9, align 4, !llfi_index !871
  %432 = load i32* %b_index_y9, align 4, !llfi_index !871
  %433 = mul nsw i32 %431, 16, !llfi_index !872
  %434 = mul nsw i32 %432, 16, !llfi_index !872
  %435 = load i32* %i12, align 4, !llfi_index !873
  %436 = load i32* %i12, align 4, !llfi_index !873
  %437 = add nsw i32 %433, %435, !llfi_index !874
  %438 = add nsw i32 %434, %436, !llfi_index !874
  %439 = add nsw i32 %437, 1, !llfi_index !875
  %440 = add nsw i32 %438, 1, !llfi_index !875
  %441 = mul nsw i32 %429, %439, !llfi_index !876
  %442 = mul nsw i32 %430, %440, !llfi_index !876
  %443 = load i32* %b_index_x8, align 4, !llfi_index !877
  %444 = load i32* %b_index_x8, align 4, !llfi_index !877
  %445 = mul nsw i32 %443, 16, !llfi_index !878
  %446 = mul nsw i32 %444, 16, !llfi_index !878
  %447 = add nsw i32 %441, %445, !llfi_index !879
  %448 = add nsw i32 %442, %446, !llfi_index !879
  %449 = load i32* %j13, align 4, !llfi_index !880
  %450 = load i32* %j13, align 4, !llfi_index !880
  %451 = add nsw i32 %447, %449, !llfi_index !881
  %452 = add nsw i32 %448, %450, !llfi_index !881
  %453 = add nsw i32 %451, 1, !llfi_index !882
  %454 = add nsw i32 %452, 1, !llfi_index !882
  %455 = sext i32 %453 to i64, !llfi_index !883
  %456 = sext i32 %454 to i64, !llfi_index !883
  %457 = load i32** %3, align 8, !llfi_index !884
  %458 = load i32** %3, align 8, !llfi_index !884
  %459 = getelementptr inbounds i32* %457, i64 %455, !llfi_index !885
  %460 = getelementptr inbounds i32* %458, i64 %456, !llfi_index !885
  %461 = load i32* %459, align 4, !llfi_index !886
  %462 = load i32* %460, align 4, !llfi_index !886
  %check_cmp103 = icmp eq i32 %461, %462
  %loadone104 = load i1* %AI
  %check_and105 = and i1 %check_cmp103, %loadone104
  %463 = load i32* %i12, align 4, !llfi_index !887
  %464 = load i32* %i12, align 4, !llfi_index !887
  %465 = mul nsw i32 %463, 16, !llfi_index !888
  %466 = mul nsw i32 %464, 16, !llfi_index !888
  %467 = load i32* %j13, align 4, !llfi_index !889
  %468 = load i32* %j13, align 4, !llfi_index !889
  %469 = add nsw i32 %465, %467, !llfi_index !890
  %470 = add nsw i32 %466, %468, !llfi_index !890
  %471 = sext i32 %469 to i64, !llfi_index !891
  %472 = sext i32 %470 to i64, !llfi_index !891
  %473 = getelementptr inbounds [256 x i32]* %reference_l11, i32 0, i64 %471, !llfi_index !892
  %474 = getelementptr inbounds [256 x i32]* %reference_l11, i32 0, i64 %472, !llfi_index !892
  %check_cmp106 = icmp eq i32* %473, %474
  %check_and107 = and i1 %check_cmp106, %check_and105
  store i1 %check_and107, i1* %AI
  store i32 %461, i32* %473, align 4, !llfi_index !893
  br label %475, !llfi_index !894

; <label>:475                                     ; preds = %428
  %476 = load i32* %j13, align 4, !llfi_index !895
  %477 = load i32* %j13, align 4, !llfi_index !895
  %478 = add nsw i32 %476, 1, !llfi_index !896
  %479 = add nsw i32 %477, 1, !llfi_index !896
  %check_cmp108 = icmp eq i32 %478, %479
  %loadone109 = load i1* %AI
  %check_and110 = and i1 %check_cmp108, %loadone109
  store i1 %check_and110, i1* %AI
  store i32 %478, i32* %j13, align 4, !llfi_index !897
  br label %423, !llfi_index !898

; <label>:480                                     ; preds = %423
  br label %481, !llfi_index !899

; <label>:481                                     ; preds = %480
  %482 = load i32* %i12, align 4, !llfi_index !900
  %483 = load i32* %i12, align 4, !llfi_index !900
  %484 = add nsw i32 %482, 1, !llfi_index !901
  %485 = add nsw i32 %483, 1, !llfi_index !901
  %check_cmp111 = icmp eq i32 %484, %485
  %loadone112 = load i1* %AI
  %check_and113 = and i1 %check_cmp111, %loadone112
  store i1 %check_and113, i1* %AI
  store i32 %484, i32* %i12, align 4, !llfi_index !902
  br label %417, !llfi_index !903

; <label>:486                                     ; preds = %417
  store i32 0, i32* %i14, align 4, !llfi_index !904
  br label %487, !llfi_index !905

; <label>:487                                     ; preds = %547, %486
  %488 = load i32* %i14, align 4, !llfi_index !906
  %489 = load i32* %i14, align 4, !llfi_index !906
  %490 = icmp slt i32 %488, 17, !llfi_index !907
  %491 = icmp slt i32 %489, 17, !llfi_index !907
  %check_cmp114 = icmp eq i1 %490, %491
  %loadone115 = load i1* %AI
  %check_and116 = and i1 %check_cmp114, %loadone115
  store i1 %check_and116, i1* %AI
  br i1 %490, label %492, label %552, !llfi_index !908

; <label>:492                                     ; preds = %487
  store i32 0, i32* %j15, align 4, !llfi_index !909
  br label %493, !llfi_index !910

; <label>:493                                     ; preds = %541, %492
  %494 = load i32* %j15, align 4, !llfi_index !911
  %495 = load i32* %j15, align 4, !llfi_index !911
  %496 = icmp slt i32 %494, 17, !llfi_index !912
  %497 = icmp slt i32 %495, 17, !llfi_index !912
  %check_cmp117 = icmp eq i1 %496, %497
  %loadone118 = load i1* %AI
  %check_and119 = and i1 %check_cmp117, %loadone118
  store i1 %check_and119, i1* %AI
  br i1 %496, label %498, label %546, !llfi_index !913

; <label>:498                                     ; preds = %493
  %499 = load i32* %5, align 4, !llfi_index !914
  %500 = load i32* %5, align 4, !llfi_index !914
  %501 = load i32* %b_index_y9, align 4, !llfi_index !915
  %502 = load i32* %b_index_y9, align 4, !llfi_index !915
  %503 = mul nsw i32 %501, 16, !llfi_index !916
  %504 = mul nsw i32 %502, 16, !llfi_index !916
  %505 = load i32* %i14, align 4, !llfi_index !917
  %506 = load i32* %i14, align 4, !llfi_index !917
  %507 = add nsw i32 %503, %505, !llfi_index !918
  %508 = add nsw i32 %504, %506, !llfi_index !918
  %509 = mul nsw i32 %499, %507, !llfi_index !919
  %510 = mul nsw i32 %500, %508, !llfi_index !919
  %511 = load i32* %b_index_x8, align 4, !llfi_index !920
  %512 = load i32* %b_index_x8, align 4, !llfi_index !920
  %513 = mul nsw i32 %511, 16, !llfi_index !921
  %514 = mul nsw i32 %512, 16, !llfi_index !921
  %515 = add nsw i32 %509, %513, !llfi_index !922
  %516 = add nsw i32 %510, %514, !llfi_index !922
  %517 = load i32* %j15, align 4, !llfi_index !923
  %518 = load i32* %j15, align 4, !llfi_index !923
  %519 = add nsw i32 %515, %517, !llfi_index !924
  %520 = add nsw i32 %516, %518, !llfi_index !924
  %521 = sext i32 %519 to i64, !llfi_index !925
  %522 = sext i32 %520 to i64, !llfi_index !925
  %523 = load i32** %1, align 8, !llfi_index !926
  %524 = load i32** %1, align 8, !llfi_index !926
  %525 = getelementptr inbounds i32* %523, i64 %521, !llfi_index !927
  %526 = getelementptr inbounds i32* %524, i64 %522, !llfi_index !927
  %527 = load i32* %525, align 4, !llfi_index !928
  %528 = load i32* %526, align 4, !llfi_index !928
  %check_cmp120 = icmp eq i32 %527, %528
  %loadone121 = load i1* %AI
  %check_and122 = and i1 %check_cmp120, %loadone121
  %529 = load i32* %i14, align 4, !llfi_index !929
  %530 = load i32* %i14, align 4, !llfi_index !929
  %531 = mul nsw i32 %529, 17, !llfi_index !930
  %532 = mul nsw i32 %530, 17, !llfi_index !930
  %533 = load i32* %j15, align 4, !llfi_index !931
  %534 = load i32* %j15, align 4, !llfi_index !931
  %535 = add nsw i32 %531, %533, !llfi_index !932
  %536 = add nsw i32 %532, %534, !llfi_index !932
  %537 = sext i32 %535 to i64, !llfi_index !933
  %538 = sext i32 %536 to i64, !llfi_index !933
  %539 = getelementptr inbounds [289 x i32]* %input_itemsets_l10, i32 0, i64 %537, !llfi_index !934
  %540 = getelementptr inbounds [289 x i32]* %input_itemsets_l10, i32 0, i64 %538, !llfi_index !934
  %check_cmp123 = icmp eq i32* %539, %540
  %check_and124 = and i1 %check_cmp123, %check_and122
  store i1 %check_and124, i1* %AI
  store i32 %527, i32* %539, align 4, !llfi_index !935
  br label %541, !llfi_index !936

; <label>:541                                     ; preds = %498
  %542 = load i32* %j15, align 4, !llfi_index !937
  %543 = load i32* %j15, align 4, !llfi_index !937
  %544 = add nsw i32 %542, 1, !llfi_index !938
  %545 = add nsw i32 %543, 1, !llfi_index !938
  %check_cmp125 = icmp eq i32 %544, %545
  %loadone126 = load i1* %AI
  %check_and127 = and i1 %check_cmp125, %loadone126
  store i1 %check_and127, i1* %AI
  store i32 %544, i32* %j15, align 4, !llfi_index !939
  br label %493, !llfi_index !940

; <label>:546                                     ; preds = %493
  br label %547, !llfi_index !941

; <label>:547                                     ; preds = %546
  %548 = load i32* %i14, align 4, !llfi_index !942
  %549 = load i32* %i14, align 4, !llfi_index !942
  %550 = add nsw i32 %548, 1, !llfi_index !943
  %551 = add nsw i32 %549, 1, !llfi_index !943
  %check_cmp128 = icmp eq i32 %550, %551
  %loadone129 = load i1* %AI
  %check_and130 = and i1 %check_cmp128, %loadone129
  store i1 %check_and130, i1* %AI
  store i32 %550, i32* %i14, align 4, !llfi_index !944
  br label %487, !llfi_index !945

; <label>:552                                     ; preds = %487
  store i32 1, i32* %i16, align 4, !llfi_index !946
  br label %553, !llfi_index !947

; <label>:553                                     ; preds = %662, %552
  %554 = load i32* %i16, align 4, !llfi_index !948
  %555 = load i32* %i16, align 4, !llfi_index !948
  %556 = icmp slt i32 %554, 17, !llfi_index !949
  %557 = icmp slt i32 %555, 17, !llfi_index !949
  %check_cmp131 = icmp eq i1 %556, %557
  %loadone132 = load i1* %AI
  %check_and133 = and i1 %check_cmp131, %loadone132
  store i1 %check_and133, i1* %AI
  br i1 %556, label %558, label %667, !llfi_index !950

; <label>:558                                     ; preds = %553
  store i32 1, i32* %j17, align 4, !llfi_index !951
  br label %559, !llfi_index !952

; <label>:559                                     ; preds = %656, %558
  %560 = load i32* %j17, align 4, !llfi_index !953
  %561 = load i32* %j17, align 4, !llfi_index !953
  %562 = icmp slt i32 %560, 17, !llfi_index !954
  %563 = icmp slt i32 %561, 17, !llfi_index !954
  %check_cmp134 = icmp eq i1 %562, %563
  %loadone135 = load i1* %AI
  %check_and136 = and i1 %check_cmp134, %loadone135
  store i1 %check_and136, i1* %AI
  br i1 %562, label %564, label %661, !llfi_index !955

; <label>:564                                     ; preds = %559
  %565 = load i32* %i16, align 4, !llfi_index !956
  %566 = load i32* %i16, align 4, !llfi_index !956
  %567 = sub nsw i32 %565, 1, !llfi_index !957
  %568 = sub nsw i32 %566, 1, !llfi_index !957
  %569 = mul nsw i32 %567, 17, !llfi_index !958
  %570 = mul nsw i32 %568, 17, !llfi_index !958
  %571 = load i32* %j17, align 4, !llfi_index !959
  %572 = load i32* %j17, align 4, !llfi_index !959
  %573 = add nsw i32 %569, %571, !llfi_index !960
  %574 = add nsw i32 %570, %572, !llfi_index !960
  %575 = sub nsw i32 %573, 1, !llfi_index !961
  %576 = sub nsw i32 %574, 1, !llfi_index !961
  %577 = sext i32 %575 to i64, !llfi_index !962
  %578 = sext i32 %576 to i64, !llfi_index !962
  %579 = getelementptr inbounds [289 x i32]* %input_itemsets_l10, i32 0, i64 %577, !llfi_index !963
  %580 = getelementptr inbounds [289 x i32]* %input_itemsets_l10, i32 0, i64 %578, !llfi_index !963
  %581 = load i32* %579, align 4, !llfi_index !964
  %582 = load i32* %580, align 4, !llfi_index !964
  %583 = load i32* %i16, align 4, !llfi_index !965
  %584 = load i32* %i16, align 4, !llfi_index !965
  %585 = sub nsw i32 %583, 1, !llfi_index !966
  %586 = sub nsw i32 %584, 1, !llfi_index !966
  %587 = mul nsw i32 %585, 16, !llfi_index !967
  %588 = mul nsw i32 %586, 16, !llfi_index !967
  %589 = load i32* %j17, align 4, !llfi_index !968
  %590 = load i32* %j17, align 4, !llfi_index !968
  %591 = add nsw i32 %587, %589, !llfi_index !969
  %592 = add nsw i32 %588, %590, !llfi_index !969
  %593 = sub nsw i32 %591, 1, !llfi_index !970
  %594 = sub nsw i32 %592, 1, !llfi_index !970
  %595 = sext i32 %593 to i64, !llfi_index !971
  %596 = sext i32 %594 to i64, !llfi_index !971
  %597 = getelementptr inbounds [256 x i32]* %reference_l11, i32 0, i64 %595, !llfi_index !972
  %598 = getelementptr inbounds [256 x i32]* %reference_l11, i32 0, i64 %596, !llfi_index !972
  %599 = load i32* %597, align 4, !llfi_index !973
  %600 = load i32* %598, align 4, !llfi_index !973
  %601 = add nsw i32 %581, %599, !llfi_index !974
  %602 = add nsw i32 %582, %600, !llfi_index !974
  %check_cmp137 = icmp eq i32 %601, %602
  %loadone138 = load i1* %AI
  %check_and139 = and i1 %check_cmp137, %loadone138
  %603 = load i32* %i16, align 4, !llfi_index !975
  %604 = load i32* %i16, align 4, !llfi_index !975
  %605 = mul nsw i32 %603, 17, !llfi_index !976
  %606 = mul nsw i32 %604, 17, !llfi_index !976
  %607 = load i32* %j17, align 4, !llfi_index !977
  %608 = load i32* %j17, align 4, !llfi_index !977
  %609 = add nsw i32 %605, %607, !llfi_index !978
  %610 = add nsw i32 %606, %608, !llfi_index !978
  %611 = sub nsw i32 %609, 1, !llfi_index !979
  %612 = sub nsw i32 %610, 1, !llfi_index !979
  %613 = sext i32 %611 to i64, !llfi_index !980
  %614 = sext i32 %612 to i64, !llfi_index !980
  %615 = getelementptr inbounds [289 x i32]* %input_itemsets_l10, i32 0, i64 %613, !llfi_index !981
  %616 = getelementptr inbounds [289 x i32]* %input_itemsets_l10, i32 0, i64 %614, !llfi_index !981
  %617 = load i32* %615, align 4, !llfi_index !982
  %618 = load i32* %616, align 4, !llfi_index !982
  %619 = load i32* %6, align 4, !llfi_index !983
  %620 = load i32* %6, align 4, !llfi_index !983
  %621 = sub nsw i32 %617, %619, !llfi_index !984
  %622 = sub nsw i32 %618, %620, !llfi_index !984
  %check_cmp140 = icmp eq i32 %621, %622
  %check_and141 = and i1 %check_cmp140, %check_and139
  %623 = load i32* %i16, align 4, !llfi_index !985
  %624 = load i32* %i16, align 4, !llfi_index !985
  %625 = sub nsw i32 %623, 1, !llfi_index !986
  %626 = sub nsw i32 %624, 1, !llfi_index !986
  %627 = mul nsw i32 %625, 17, !llfi_index !987
  %628 = mul nsw i32 %626, 17, !llfi_index !987
  %629 = load i32* %j17, align 4, !llfi_index !988
  %630 = load i32* %j17, align 4, !llfi_index !988
  %631 = add nsw i32 %627, %629, !llfi_index !989
  %632 = add nsw i32 %628, %630, !llfi_index !989
  %633 = sext i32 %631 to i64, !llfi_index !990
  %634 = sext i32 %632 to i64, !llfi_index !990
  %635 = getelementptr inbounds [289 x i32]* %input_itemsets_l10, i32 0, i64 %633, !llfi_index !991
  %636 = getelementptr inbounds [289 x i32]* %input_itemsets_l10, i32 0, i64 %634, !llfi_index !991
  %637 = load i32* %635, align 4, !llfi_index !992
  %638 = load i32* %636, align 4, !llfi_index !992
  %639 = load i32* %6, align 4, !llfi_index !993
  %640 = load i32* %6, align 4, !llfi_index !993
  %641 = sub nsw i32 %637, %639, !llfi_index !994
  %642 = sub nsw i32 %638, %640, !llfi_index !994
  %check_cmp142 = icmp eq i32 %641, %642
  %check_and143 = and i1 %check_cmp142, %check_and141
  %643 = call i32 @_Z7maximumiii(i32 %601, i32 %621, i32 %641), !llfi_index !995
  %644 = load i32* %i16, align 4, !llfi_index !996
  %645 = load i32* %i16, align 4, !llfi_index !996
  %646 = mul nsw i32 %644, 17, !llfi_index !997
  %647 = mul nsw i32 %645, 17, !llfi_index !997
  %648 = load i32* %j17, align 4, !llfi_index !998
  %649 = load i32* %j17, align 4, !llfi_index !998
  %650 = add nsw i32 %646, %648, !llfi_index !999
  %651 = add nsw i32 %647, %649, !llfi_index !999
  %652 = sext i32 %650 to i64, !llfi_index !1000
  %653 = sext i32 %651 to i64, !llfi_index !1000
  %654 = getelementptr inbounds [289 x i32]* %input_itemsets_l10, i32 0, i64 %652, !llfi_index !1001
  %655 = getelementptr inbounds [289 x i32]* %input_itemsets_l10, i32 0, i64 %653, !llfi_index !1001
  %check_cmp144 = icmp eq i32* %654, %655
  %check_and145 = and i1 %check_cmp144, %check_and143
  store i1 %check_and145, i1* %AI
  store i32 %643, i32* %654, align 4, !llfi_index !1002
  br label %656, !llfi_index !1003

; <label>:656                                     ; preds = %564
  %657 = load i32* %j17, align 4, !llfi_index !1004
  %658 = load i32* %j17, align 4, !llfi_index !1004
  %659 = add nsw i32 %657, 1, !llfi_index !1005
  %660 = add nsw i32 %658, 1, !llfi_index !1005
  %check_cmp146 = icmp eq i32 %659, %660
  %loadone147 = load i1* %AI
  %check_and148 = and i1 %check_cmp146, %loadone147
  store i1 %check_and148, i1* %AI
  store i32 %659, i32* %j17, align 4, !llfi_index !1006
  br label %559, !llfi_index !1007

; <label>:661                                     ; preds = %559
  br label %662, !llfi_index !1008

; <label>:662                                     ; preds = %661
  %663 = load i32* %i16, align 4, !llfi_index !1009
  %664 = load i32* %i16, align 4, !llfi_index !1009
  %665 = add nsw i32 %663, 1, !llfi_index !1010
  %666 = add nsw i32 %664, 1, !llfi_index !1010
  %check_cmp149 = icmp eq i32 %665, %666
  %loadone150 = load i1* %AI
  %check_and151 = and i1 %check_cmp149, %loadone150
  store i1 %check_and151, i1* %AI
  store i32 %665, i32* %i16, align 4, !llfi_index !1011
  br label %553, !llfi_index !1012

; <label>:667                                     ; preds = %553
  store i32 0, i32* %i18, align 4, !llfi_index !1013
  br label %668, !llfi_index !1014

; <label>:668                                     ; preds = %736, %667
  %669 = load i32* %i18, align 4, !llfi_index !1015
  %670 = load i32* %i18, align 4, !llfi_index !1015
  %671 = icmp slt i32 %669, 16, !llfi_index !1016
  %672 = icmp slt i32 %670, 16, !llfi_index !1016
  %check_cmp152 = icmp eq i1 %671, %672
  %loadone153 = load i1* %AI
  %check_and154 = and i1 %check_cmp152, %loadone153
  store i1 %check_and154, i1* %AI
  br i1 %671, label %673, label %741, !llfi_index !1017

; <label>:673                                     ; preds = %668
  store i32 0, i32* %j19, align 4, !llfi_index !1018
  br label %674, !llfi_index !1019

; <label>:674                                     ; preds = %730, %673
  %675 = load i32* %j19, align 4, !llfi_index !1020
  %676 = load i32* %j19, align 4, !llfi_index !1020
  %677 = icmp slt i32 %675, 16, !llfi_index !1021
  %678 = icmp slt i32 %676, 16, !llfi_index !1021
  %check_cmp155 = icmp eq i1 %677, %678
  %loadone156 = load i1* %AI
  %check_and157 = and i1 %check_cmp155, %loadone156
  store i1 %check_and157, i1* %AI
  br i1 %677, label %679, label %735, !llfi_index !1022

; <label>:679                                     ; preds = %674
  %680 = load i32* %i18, align 4, !llfi_index !1023
  %681 = load i32* %i18, align 4, !llfi_index !1023
  %682 = add nsw i32 %680, 1, !llfi_index !1024
  %683 = add nsw i32 %681, 1, !llfi_index !1024
  %684 = mul nsw i32 %682, 17, !llfi_index !1025
  %685 = mul nsw i32 %683, 17, !llfi_index !1025
  %686 = load i32* %j19, align 4, !llfi_index !1026
  %687 = load i32* %j19, align 4, !llfi_index !1026
  %688 = add nsw i32 %684, %686, !llfi_index !1027
  %689 = add nsw i32 %685, %687, !llfi_index !1027
  %690 = add nsw i32 %688, 1, !llfi_index !1028
  %691 = add nsw i32 %689, 1, !llfi_index !1028
  %692 = sext i32 %690 to i64, !llfi_index !1029
  %693 = sext i32 %691 to i64, !llfi_index !1029
  %694 = getelementptr inbounds [289 x i32]* %input_itemsets_l10, i32 0, i64 %692, !llfi_index !1030
  %695 = getelementptr inbounds [289 x i32]* %input_itemsets_l10, i32 0, i64 %693, !llfi_index !1030
  %696 = load i32* %694, align 4, !llfi_index !1031
  %697 = load i32* %695, align 4, !llfi_index !1031
  %check_cmp158 = icmp eq i32 %696, %697
  %loadone159 = load i1* %AI
  %check_and160 = and i1 %check_cmp158, %loadone159
  %698 = load i32* %5, align 4, !llfi_index !1032
  %699 = load i32* %5, align 4, !llfi_index !1032
  %700 = load i32* %b_index_y9, align 4, !llfi_index !1033
  %701 = load i32* %b_index_y9, align 4, !llfi_index !1033
  %702 = mul nsw i32 %700, 16, !llfi_index !1034
  %703 = mul nsw i32 %701, 16, !llfi_index !1034
  %704 = load i32* %i18, align 4, !llfi_index !1035
  %705 = load i32* %i18, align 4, !llfi_index !1035
  %706 = add nsw i32 %702, %704, !llfi_index !1036
  %707 = add nsw i32 %703, %705, !llfi_index !1036
  %708 = add nsw i32 %706, 1, !llfi_index !1037
  %709 = add nsw i32 %707, 1, !llfi_index !1037
  %710 = mul nsw i32 %698, %708, !llfi_index !1038
  %711 = mul nsw i32 %699, %709, !llfi_index !1038
  %712 = load i32* %b_index_x8, align 4, !llfi_index !1039
  %713 = load i32* %b_index_x8, align 4, !llfi_index !1039
  %714 = mul nsw i32 %712, 16, !llfi_index !1040
  %715 = mul nsw i32 %713, 16, !llfi_index !1040
  %716 = add nsw i32 %710, %714, !llfi_index !1041
  %717 = add nsw i32 %711, %715, !llfi_index !1041
  %718 = load i32* %j19, align 4, !llfi_index !1042
  %719 = load i32* %j19, align 4, !llfi_index !1042
  %720 = add nsw i32 %716, %718, !llfi_index !1043
  %721 = add nsw i32 %717, %719, !llfi_index !1043
  %722 = add nsw i32 %720, 1, !llfi_index !1044
  %723 = add nsw i32 %721, 1, !llfi_index !1044
  %724 = sext i32 %722 to i64, !llfi_index !1045
  %725 = sext i32 %723 to i64, !llfi_index !1045
  %726 = load i32** %1, align 8, !llfi_index !1046
  %727 = load i32** %1, align 8, !llfi_index !1046
  %728 = getelementptr inbounds i32* %726, i64 %724, !llfi_index !1047
  %729 = getelementptr inbounds i32* %727, i64 %725, !llfi_index !1047
  %check_cmp161 = icmp eq i32* %728, %729
  %check_and162 = and i1 %check_cmp161, %check_and160
  store i1 %check_and162, i1* %AI
  store i32 %696, i32* %728, align 4, !llfi_index !1048
  br label %730, !llfi_index !1049

; <label>:730                                     ; preds = %679
  %731 = load i32* %j19, align 4, !llfi_index !1050
  %732 = load i32* %j19, align 4, !llfi_index !1050
  %733 = add nsw i32 %731, 1, !llfi_index !1051
  %734 = add nsw i32 %732, 1, !llfi_index !1051
  %check_cmp163 = icmp eq i32 %733, %734
  %loadone164 = load i1* %AI
  %check_and165 = and i1 %check_cmp163, %loadone164
  store i1 %check_and165, i1* %AI
  store i32 %733, i32* %j19, align 4, !llfi_index !1052
  br label %674, !llfi_index !1053

; <label>:735                                     ; preds = %674
  br label %736, !llfi_index !1054

; <label>:736                                     ; preds = %735
  %737 = load i32* %i18, align 4, !llfi_index !1055
  %738 = load i32* %i18, align 4, !llfi_index !1055
  %739 = add nsw i32 %737, 1, !llfi_index !1056
  %740 = add nsw i32 %738, 1, !llfi_index !1056
  %check_cmp166 = icmp eq i32 %739, %740
  %loadone167 = load i1* %AI
  %check_and168 = and i1 %check_cmp166, %loadone167
  store i1 %check_and168, i1* %AI
  store i32 %739, i32* %i18, align 4, !llfi_index !1057
  br label %668, !llfi_index !1058

; <label>:741                                     ; preds = %668
  br label %742, !llfi_index !1059

; <label>:742                                     ; preds = %741
  %743 = load i32* %b_index_x8, align 4, !llfi_index !1060
  %744 = load i32* %b_index_x8, align 4, !llfi_index !1060
  %745 = add nsw i32 %743, 1, !llfi_index !1061
  %746 = add nsw i32 %744, 1, !llfi_index !1061
  %check_cmp169 = icmp eq i32 %745, %746
  %loadone170 = load i1* %AI
  %check_and171 = and i1 %check_cmp169, %loadone170
  store i1 %check_and171, i1* %AI
  store i32 %745, i32* %b_index_x8, align 4, !llfi_index !1062
  br label %389, !llfi_index !1063

; <label>:747                                     ; preds = %389
  br label %748, !llfi_index !1064

; <label>:748                                     ; preds = %747
  %749 = load i32* %blk7, align 4, !llfi_index !1065
  %750 = load i32* %blk7, align 4, !llfi_index !1065
  %751 = add nsw i32 %749, 1, !llfi_index !1066
  %752 = add nsw i32 %750, 1, !llfi_index !1066
  store i32 %751, i32* %blk7, align 4, !llfi_index !1067
  br label %373, !llfi_index !1068

; <label>:753                                     ; preds = %373
  ret void, !llfi_index !1069
}

declare i32 @printf(i8*, ...) #3

; Function Attrs: nounwind readonly
declare i32 @atoi(i8*) #5

; Function Attrs: nounwind
declare noalias i8* @malloc(i64) #1

declare %struct._IO_FILE* @fopen(i8*, i8*) #3

declare i32 @fclose(%struct._IO_FILE*) #3

; Function Attrs: nounwind
declare void @free(i8*) #1

declare void @dumpIndex(i64)

; Function Attrs: nounwind uwtable
define void @check_flag() #0 {
  %1 = call i32 (i8*, ...)* @printf(i8* getelementptr inbounds ([59 x i8]* @.str14, i32 0, i32 0))
  call void @exit(i32 99) #8
  unreachable
                                                  ; No predecessors!
  ret void
}

attributes #0 = { nounwind uwtable "less-precise-fpmad"="false" "no-frame-pointer-elim"="true" "no-frame-pointer-elim-non-leaf" "no-infs-fp-math"="false" "no-nans-fp-math"="false" "stack-protector-buffer-size"="8" "unsafe-fp-math"="false" "use-soft-float"="false" }
attributes #1 = { nounwind "less-precise-fpmad"="false" "no-frame-pointer-elim"="true" "no-frame-pointer-elim-non-leaf" "no-infs-fp-math"="false" "no-nans-fp-math"="false" "stack-protector-buffer-size"="8" "unsafe-fp-math"="false" "use-soft-float"="false" }
attributes #2 = { uwtable "less-precise-fpmad"="false" "no-frame-pointer-elim"="true" "no-frame-pointer-elim-non-leaf" "no-infs-fp-math"="false" "no-nans-fp-math"="false" "stack-protector-buffer-size"="8" "unsafe-fp-math"="false" "use-soft-float"="false" }
attributes #3 = { "less-precise-fpmad"="false" "no-frame-pointer-elim"="true" "no-frame-pointer-elim-non-leaf" "no-infs-fp-math"="false" "no-nans-fp-math"="false" "stack-protector-buffer-size"="8" "unsafe-fp-math"="false" "use-soft-float"="false" }
attributes #4 = { noreturn nounwind "less-precise-fpmad"="false" "no-frame-pointer-elim"="true" "no-frame-pointer-elim-non-leaf" "no-infs-fp-math"="false" "no-nans-fp-math"="false" "stack-protector-buffer-size"="8" "unsafe-fp-math"="false" "use-soft-float"="false" }
attributes #5 = { nounwind readonly "less-precise-fpmad"="false" "no-frame-pointer-elim"="true" "no-frame-pointer-elim-non-leaf" "no-infs-fp-math"="false" "no-nans-fp-math"="false" "stack-protector-buffer-size"="8" "unsafe-fp-math"="false" "use-soft-float"="false" }
attributes #6 = { nounwind }
attributes #7 = { nounwind readonly }
attributes #8 = { noreturn nounwind }

!llvm.ident = !{!0, !0}

!0 = metadata !{metadata !"clang version 3.4 (tags/RELEASE_34/final)"}
!1 = metadata !{i64 1}
!2 = metadata !{i64 2}
!3 = metadata !{i64 3}
!4 = metadata !{i64 4}
!5 = metadata !{i64 5}
!6 = metadata !{i64 6}
!7 = metadata !{i64 7}
!8 = metadata !{i64 8}
!9 = metadata !{i64 9}
!10 = metadata !{i64 10}
!11 = metadata !{i64 11}
!12 = metadata !{i64 12}
!13 = metadata !{i64 13}
!14 = metadata !{i64 14}
!15 = metadata !{i64 15}
!16 = metadata !{i64 16}
!17 = metadata !{i64 17}
!18 = metadata !{i64 18}
!19 = metadata !{i64 19}
!20 = metadata !{i64 20}
!21 = metadata !{i64 21}
!22 = metadata !{i64 22}
!23 = metadata !{i64 23}
!24 = metadata !{i64 24}
!25 = metadata !{i64 25}
!26 = metadata !{i64 26}
!27 = metadata !{i64 27}
!28 = metadata !{i64 28}
!29 = metadata !{i64 29}
!30 = metadata !{i64 30}
!31 = metadata !{i64 31}
!32 = metadata !{i64 32}
!33 = metadata !{i64 33}
!34 = metadata !{i64 34}
!35 = metadata !{i64 35}
!36 = metadata !{i64 36}
!37 = metadata !{i64 37}
!38 = metadata !{i64 38}
!39 = metadata !{i64 39}
!40 = metadata !{i64 40}
!41 = metadata !{i64 41}
!42 = metadata !{i64 42}
!43 = metadata !{i64 43}
!44 = metadata !{i64 44}
!45 = metadata !{i64 45}
!46 = metadata !{i64 46}
!47 = metadata !{i64 47}
!48 = metadata !{i64 48}
!49 = metadata !{i64 49}
!50 = metadata !{i64 50}
!51 = metadata !{i64 51}
!52 = metadata !{i64 52}
!53 = metadata !{i64 53}
!54 = metadata !{i64 54}
!55 = metadata !{i64 55}
!56 = metadata !{i64 56}
!57 = metadata !{i64 57}
!58 = metadata !{i64 58}
!59 = metadata !{i64 59}
!60 = metadata !{i64 60}
!61 = metadata !{i64 61}
!62 = metadata !{i64 62}
!63 = metadata !{i64 63}
!64 = metadata !{i64 64}
!65 = metadata !{i64 65}
!66 = metadata !{i64 66}
!67 = metadata !{i64 67}
!68 = metadata !{i64 68}
!69 = metadata !{i64 69}
!70 = metadata !{i64 70}
!71 = metadata !{i64 71}
!72 = metadata !{i64 72}
!73 = metadata !{i64 73}
!74 = metadata !{i64 74}
!75 = metadata !{i64 75}
!76 = metadata !{i64 76}
!77 = metadata !{i64 77}
!78 = metadata !{i64 78}
!79 = metadata !{i64 79}
!80 = metadata !{i64 80}
!81 = metadata !{i64 81}
!82 = metadata !{i64 82}
!83 = metadata !{i64 83}
!84 = metadata !{i64 84}
!85 = metadata !{i64 85}
!86 = metadata !{i64 86}
!87 = metadata !{i64 87}
!88 = metadata !{i64 88}
!89 = metadata !{i64 89}
!90 = metadata !{i64 90}
!91 = metadata !{i64 91}
!92 = metadata !{i64 92}
!93 = metadata !{i64 93}
!94 = metadata !{i64 94}
!95 = metadata !{i64 95}
!96 = metadata !{i64 96}
!97 = metadata !{i64 97}
!98 = metadata !{i64 98}
!99 = metadata !{i64 99}
!100 = metadata !{i64 100}
!101 = metadata !{i64 101}
!102 = metadata !{i64 102}
!103 = metadata !{i64 103}
!104 = metadata !{i64 104}
!105 = metadata !{i64 105}
!106 = metadata !{i64 106}
!107 = metadata !{i64 107}
!108 = metadata !{i64 108}
!109 = metadata !{i64 109}
!110 = metadata !{i64 110}
!111 = metadata !{i64 111}
!112 = metadata !{i64 112}
!113 = metadata !{i64 113}
!114 = metadata !{i64 114}
!115 = metadata !{i64 115}
!116 = metadata !{i64 116}
!117 = metadata !{i64 117}
!118 = metadata !{i64 118}
!119 = metadata !{i64 119}
!120 = metadata !{i64 120}
!121 = metadata !{i64 121}
!122 = metadata !{i64 122}
!123 = metadata !{i64 123}
!124 = metadata !{i64 124}
!125 = metadata !{i64 125}
!126 = metadata !{i64 126}
!127 = metadata !{i64 127}
!128 = metadata !{i64 128}
!129 = metadata !{i64 129}
!130 = metadata !{i64 130}
!131 = metadata !{i64 131}
!132 = metadata !{i64 132}
!133 = metadata !{i64 133}
!134 = metadata !{i64 134}
!135 = metadata !{i64 135}
!136 = metadata !{i64 136}
!137 = metadata !{i64 137}
!138 = metadata !{i64 138}
!139 = metadata !{i64 139}
!140 = metadata !{i64 140}
!141 = metadata !{i64 141}
!142 = metadata !{i64 142}
!143 = metadata !{i64 143}
!144 = metadata !{i64 144}
!145 = metadata !{i64 145}
!146 = metadata !{i64 146}
!147 = metadata !{i64 147}
!148 = metadata !{i64 148}
!149 = metadata !{i64 149}
!150 = metadata !{i64 150}
!151 = metadata !{i64 151}
!152 = metadata !{i64 152}
!153 = metadata !{i64 153}
!154 = metadata !{i64 154}
!155 = metadata !{i64 155}
!156 = metadata !{i64 156}
!157 = metadata !{i64 157}
!158 = metadata !{i64 158}
!159 = metadata !{i64 159}
!160 = metadata !{i64 160}
!161 = metadata !{i64 161}
!162 = metadata !{i64 162}
!163 = metadata !{i64 163}
!164 = metadata !{i64 164}
!165 = metadata !{i64 165}
!166 = metadata !{i64 166}
!167 = metadata !{i64 167}
!168 = metadata !{i64 168}
!169 = metadata !{i64 169}
!170 = metadata !{i64 170}
!171 = metadata !{i64 171}
!172 = metadata !{i64 172}
!173 = metadata !{i64 173}
!174 = metadata !{i64 174}
!175 = metadata !{i64 175}
!176 = metadata !{i64 176}
!177 = metadata !{i64 177}
!178 = metadata !{i64 178}
!179 = metadata !{i64 179}
!180 = metadata !{i64 180}
!181 = metadata !{i64 181}
!182 = metadata !{i64 182}
!183 = metadata !{i64 183}
!184 = metadata !{i64 184}
!185 = metadata !{i64 185}
!186 = metadata !{i64 186}
!187 = metadata !{i64 187}
!188 = metadata !{i64 188}
!189 = metadata !{i64 189}
!190 = metadata !{i64 190}
!191 = metadata !{i64 191}
!192 = metadata !{i64 192}
!193 = metadata !{i64 193}
!194 = metadata !{i64 194}
!195 = metadata !{i64 195}
!196 = metadata !{i64 196}
!197 = metadata !{i64 197}
!198 = metadata !{i64 198}
!199 = metadata !{i64 199}
!200 = metadata !{i64 200}
!201 = metadata !{i64 201}
!202 = metadata !{i64 202}
!203 = metadata !{i64 203}
!204 = metadata !{i64 204}
!205 = metadata !{i64 205}
!206 = metadata !{i64 206}
!207 = metadata !{i64 207}
!208 = metadata !{i64 208}
!209 = metadata !{i64 209}
!210 = metadata !{i64 210}
!211 = metadata !{i64 211}
!212 = metadata !{i64 212}
!213 = metadata !{i64 213}
!214 = metadata !{i64 214}
!215 = metadata !{i64 215}
!216 = metadata !{i64 216}
!217 = metadata !{i64 217}
!218 = metadata !{i64 218}
!219 = metadata !{i64 219}
!220 = metadata !{i64 220}
!221 = metadata !{i64 221}
!222 = metadata !{i64 222}
!223 = metadata !{i64 223}
!224 = metadata !{i64 224}
!225 = metadata !{i64 225}
!226 = metadata !{i64 226}
!227 = metadata !{i64 227}
!228 = metadata !{i64 228}
!229 = metadata !{i64 229}
!230 = metadata !{i64 230}
!231 = metadata !{i64 231}
!232 = metadata !{i64 232}
!233 = metadata !{i64 233}
!234 = metadata !{i64 234}
!235 = metadata !{i64 235}
!236 = metadata !{i64 236}
!237 = metadata !{i64 237}
!238 = metadata !{i64 238}
!239 = metadata !{i64 239}
!240 = metadata !{i64 240}
!241 = metadata !{i64 241}
!242 = metadata !{i64 242}
!243 = metadata !{i64 243}
!244 = metadata !{i64 244}
!245 = metadata !{i64 245}
!246 = metadata !{i64 246}
!247 = metadata !{i64 247}
!248 = metadata !{i64 248}
!249 = metadata !{i64 249}
!250 = metadata !{i64 250}
!251 = metadata !{i64 251}
!252 = metadata !{i64 252}
!253 = metadata !{i64 253}
!254 = metadata !{i64 254}
!255 = metadata !{i64 255}
!256 = metadata !{i64 256}
!257 = metadata !{i64 257}
!258 = metadata !{i64 258}
!259 = metadata !{i64 259}
!260 = metadata !{i64 260}
!261 = metadata !{i64 261}
!262 = metadata !{i64 262}
!263 = metadata !{i64 263}
!264 = metadata !{i64 264}
!265 = metadata !{i64 265}
!266 = metadata !{i64 266}
!267 = metadata !{i64 267}
!268 = metadata !{i64 268}
!269 = metadata !{i64 269}
!270 = metadata !{i64 270}
!271 = metadata !{i64 271}
!272 = metadata !{i64 272}
!273 = metadata !{i64 273}
!274 = metadata !{i64 274}
!275 = metadata !{i64 275}
!276 = metadata !{i64 276}
!277 = metadata !{i64 277}
!278 = metadata !{i64 278}
!279 = metadata !{i64 279}
!280 = metadata !{i64 280}
!281 = metadata !{i64 281}
!282 = metadata !{i64 282}
!283 = metadata !{i64 283}
!284 = metadata !{i64 284}
!285 = metadata !{i64 285}
!286 = metadata !{i64 286}
!287 = metadata !{i64 287}
!288 = metadata !{i64 288}
!289 = metadata !{i64 289}
!290 = metadata !{i64 290}
!291 = metadata !{i64 291}
!292 = metadata !{i64 292}
!293 = metadata !{i64 293}
!294 = metadata !{i64 294}
!295 = metadata !{i64 295}
!296 = metadata !{i64 296}
!297 = metadata !{i64 297}
!298 = metadata !{i64 298}
!299 = metadata !{i64 299}
!300 = metadata !{i64 300}
!301 = metadata !{i64 301}
!302 = metadata !{i64 302}
!303 = metadata !{i64 303}
!304 = metadata !{i64 304}
!305 = metadata !{i64 305}
!306 = metadata !{i64 306}
!307 = metadata !{i64 307}
!308 = metadata !{i64 308}
!309 = metadata !{i64 309}
!310 = metadata !{i64 310}
!311 = metadata !{i64 311}
!312 = metadata !{i64 312}
!313 = metadata !{i64 313}
!314 = metadata !{i64 314}
!315 = metadata !{i64 315}
!316 = metadata !{i64 316}
!317 = metadata !{i64 317}
!318 = metadata !{i64 318}
!319 = metadata !{i64 319}
!320 = metadata !{i64 320}
!321 = metadata !{i64 321}
!322 = metadata !{i64 322}
!323 = metadata !{i64 323}
!324 = metadata !{i64 324}
!325 = metadata !{i64 325}
!326 = metadata !{i64 326}
!327 = metadata !{i64 327}
!328 = metadata !{i64 328}
!329 = metadata !{i64 329}
!330 = metadata !{i64 330}
!331 = metadata !{i64 331}
!332 = metadata !{i64 332}
!333 = metadata !{i64 333}
!334 = metadata !{i64 334}
!335 = metadata !{i64 335}
!336 = metadata !{i64 336}
!337 = metadata !{i64 337}
!338 = metadata !{i64 338}
!339 = metadata !{i64 339}
!340 = metadata !{i64 340}
!341 = metadata !{i64 341}
!342 = metadata !{i64 342}
!343 = metadata !{i64 343}
!344 = metadata !{i64 344}
!345 = metadata !{i64 345}
!346 = metadata !{i64 346}
!347 = metadata !{i64 347}
!348 = metadata !{i64 348}
!349 = metadata !{i64 349}
!350 = metadata !{i64 350}
!351 = metadata !{i64 351}
!352 = metadata !{i64 352}
!353 = metadata !{i64 353}
!354 = metadata !{i64 354}
!355 = metadata !{i64 355}
!356 = metadata !{i64 356}
!357 = metadata !{i64 357}
!358 = metadata !{i64 358}
!359 = metadata !{i64 359}
!360 = metadata !{i64 360}
!361 = metadata !{i64 361}
!362 = metadata !{i64 362}
!363 = metadata !{i64 363}
!364 = metadata !{i64 364}
!365 = metadata !{i64 365}
!366 = metadata !{i64 366}
!367 = metadata !{i64 367}
!368 = metadata !{i64 368}
!369 = metadata !{i64 369}
!370 = metadata !{i64 370}
!371 = metadata !{i64 371}
!372 = metadata !{i64 372}
!373 = metadata !{i64 373}
!374 = metadata !{i64 374}
!375 = metadata !{i64 375}
!376 = metadata !{i64 376}
!377 = metadata !{i64 377}
!378 = metadata !{i64 378}
!379 = metadata !{i64 379}
!380 = metadata !{i64 380}
!381 = metadata !{i64 381}
!382 = metadata !{i64 382}
!383 = metadata !{i64 383}
!384 = metadata !{i64 384}
!385 = metadata !{i64 385}
!386 = metadata !{i64 386}
!387 = metadata !{i64 387}
!388 = metadata !{i64 388}
!389 = metadata !{i64 389}
!390 = metadata !{i64 390}
!391 = metadata !{i64 391}
!392 = metadata !{i64 392}
!393 = metadata !{i64 393}
!394 = metadata !{i64 394}
!395 = metadata !{i64 395}
!396 = metadata !{i64 396}
!397 = metadata !{i64 397}
!398 = metadata !{i64 398}
!399 = metadata !{i64 399}
!400 = metadata !{i64 400}
!401 = metadata !{i64 401}
!402 = metadata !{i64 402}
!403 = metadata !{i64 403}
!404 = metadata !{i64 404}
!405 = metadata !{i64 405}
!406 = metadata !{i64 406}
!407 = metadata !{i64 407}
!408 = metadata !{i64 408}
!409 = metadata !{i64 409}
!410 = metadata !{i64 410}
!411 = metadata !{i64 411}
!412 = metadata !{i64 412}
!413 = metadata !{i64 413}
!414 = metadata !{i64 414}
!415 = metadata !{i64 415}
!416 = metadata !{i64 416}
!417 = metadata !{i64 417}
!418 = metadata !{i64 418}
!419 = metadata !{i64 419}
!420 = metadata !{i64 420}
!421 = metadata !{i64 421}
!422 = metadata !{i64 422}
!423 = metadata !{i64 423}
!424 = metadata !{i64 424}
!425 = metadata !{i64 425}
!426 = metadata !{i64 426}
!427 = metadata !{i64 427}
!428 = metadata !{i64 428}
!429 = metadata !{i64 429}
!430 = metadata !{i64 430}
!431 = metadata !{i64 431}
!432 = metadata !{i64 432}
!433 = metadata !{i64 433}
!434 = metadata !{i64 434}
!435 = metadata !{i64 435}
!436 = metadata !{i64 436}
!437 = metadata !{i64 437}
!438 = metadata !{i64 438}
!439 = metadata !{i64 439}
!440 = metadata !{i64 440}
!441 = metadata !{i64 441}
!442 = metadata !{i64 442}
!443 = metadata !{i64 443}
!444 = metadata !{i64 444}
!445 = metadata !{i64 445}
!446 = metadata !{i64 446}
!447 = metadata !{i64 447}
!448 = metadata !{i64 448}
!449 = metadata !{i64 449}
!450 = metadata !{i64 450}
!451 = metadata !{i64 451}
!452 = metadata !{i64 452}
!453 = metadata !{i64 453}
!454 = metadata !{i64 454}
!455 = metadata !{i64 455}
!456 = metadata !{i64 456}
!457 = metadata !{i64 457}
!458 = metadata !{i64 458}
!459 = metadata !{i64 459}
!460 = metadata !{i64 460}
!461 = metadata !{i64 461}
!462 = metadata !{i64 462}
!463 = metadata !{i64 463}
!464 = metadata !{i64 464}
!465 = metadata !{i64 465}
!466 = metadata !{i64 466}
!467 = metadata !{i64 467}
!468 = metadata !{i64 468}
!469 = metadata !{i64 469}
!470 = metadata !{i64 470}
!471 = metadata !{i64 471}
!472 = metadata !{i64 472}
!473 = metadata !{i64 473}
!474 = metadata !{i64 474}
!475 = metadata !{i64 475}
!476 = metadata !{i64 476}
!477 = metadata !{i64 477}
!478 = metadata !{i64 478}
!479 = metadata !{i64 479}
!480 = metadata !{i64 480}
!481 = metadata !{i64 481}
!482 = metadata !{i64 482}
!483 = metadata !{i64 483}
!484 = metadata !{i64 484}
!485 = metadata !{i64 485}
!486 = metadata !{i64 486}
!487 = metadata !{i64 487}
!488 = metadata !{i64 488}
!489 = metadata !{i64 489}
!490 = metadata !{i64 490}
!491 = metadata !{i64 491}
!492 = metadata !{i64 492}
!493 = metadata !{i64 493}
!494 = metadata !{i64 494}
!495 = metadata !{i64 495}
!496 = metadata !{i64 496}
!497 = metadata !{i64 497}
!498 = metadata !{i64 498}
!499 = metadata !{i64 499}
!500 = metadata !{i64 500}
!501 = metadata !{i64 501}
!502 = metadata !{i64 502}
!503 = metadata !{i64 503}
!504 = metadata !{i64 504}
!505 = metadata !{i64 505}
!506 = metadata !{i64 506}
!507 = metadata !{i64 507}
!508 = metadata !{i64 508}
!509 = metadata !{i64 509}
!510 = metadata !{i64 510}
!511 = metadata !{i64 511}
!512 = metadata !{i64 512}
!513 = metadata !{i64 513}
!514 = metadata !{i64 514}
!515 = metadata !{i64 515}
!516 = metadata !{i64 516}
!517 = metadata !{i64 517}
!518 = metadata !{i64 518}
!519 = metadata !{i64 519}
!520 = metadata !{i64 520}
!521 = metadata !{i64 521}
!522 = metadata !{i64 522}
!523 = metadata !{i64 523}
!524 = metadata !{i64 524}
!525 = metadata !{i64 525}
!526 = metadata !{i64 526}
!527 = metadata !{i64 527}
!528 = metadata !{i64 528}
!529 = metadata !{i64 529}
!530 = metadata !{i64 530}
!531 = metadata !{i64 531}
!532 = metadata !{i64 532}
!533 = metadata !{i64 533}
!534 = metadata !{i64 534}
!535 = metadata !{i64 535}
!536 = metadata !{i64 536}
!537 = metadata !{i64 537}
!538 = metadata !{i64 538}
!539 = metadata !{i64 539}
!540 = metadata !{i64 540}
!541 = metadata !{i64 541}
!542 = metadata !{i64 542}
!543 = metadata !{i64 543}
!544 = metadata !{i64 544}
!545 = metadata !{i64 545}
!546 = metadata !{i64 546}
!547 = metadata !{i64 547}
!548 = metadata !{i64 548}
!549 = metadata !{i64 549}
!550 = metadata !{i64 550}
!551 = metadata !{i64 551}
!552 = metadata !{i64 552}
!553 = metadata !{i64 553}
!554 = metadata !{i64 554}
!555 = metadata !{i64 555}
!556 = metadata !{i64 556}
!557 = metadata !{i64 557}
!558 = metadata !{i64 558}
!559 = metadata !{i64 559}
!560 = metadata !{i64 560}
!561 = metadata !{i64 561}
!562 = metadata !{i64 562}
!563 = metadata !{i64 563}
!564 = metadata !{i64 564}
!565 = metadata !{i64 565}
!566 = metadata !{i64 566}
!567 = metadata !{i64 567}
!568 = metadata !{i64 568}
!569 = metadata !{i64 569}
!570 = metadata !{i64 570}
!571 = metadata !{i64 571}
!572 = metadata !{i64 572}
!573 = metadata !{i64 573}
!574 = metadata !{i64 574}
!575 = metadata !{i64 575}
!576 = metadata !{i64 576}
!577 = metadata !{i64 577}
!578 = metadata !{i64 578}
!579 = metadata !{i64 579}
!580 = metadata !{i64 580}
!581 = metadata !{i64 581}
!582 = metadata !{i64 582}
!583 = metadata !{i64 583}
!584 = metadata !{i64 584}
!585 = metadata !{i64 585}
!586 = metadata !{i64 586}
!587 = metadata !{i64 587}
!588 = metadata !{i64 588}
!589 = metadata !{i64 589}
!590 = metadata !{i64 590}
!591 = metadata !{i64 591}
!592 = metadata !{i64 592}
!593 = metadata !{i64 593}
!594 = metadata !{i64 594}
!595 = metadata !{i64 595}
!596 = metadata !{i64 596}
!597 = metadata !{i64 597}
!598 = metadata !{i64 598}
!599 = metadata !{i64 599}
!600 = metadata !{i64 600}
!601 = metadata !{i64 601}
!602 = metadata !{i64 602}
!603 = metadata !{i64 603}
!604 = metadata !{i64 604}
!605 = metadata !{i64 605}
!606 = metadata !{i64 606}
!607 = metadata !{i64 607}
!608 = metadata !{i64 608}
!609 = metadata !{i64 609}
!610 = metadata !{i64 610}
!611 = metadata !{i64 611}
!612 = metadata !{i64 612}
!613 = metadata !{i64 613}
!614 = metadata !{i64 614}
!615 = metadata !{i64 615}
!616 = metadata !{i64 616}
!617 = metadata !{i64 617}
!618 = metadata !{i64 618}
!619 = metadata !{i64 619}
!620 = metadata !{i64 620}
!621 = metadata !{i64 621}
!622 = metadata !{i64 622}
!623 = metadata !{i64 623}
!624 = metadata !{i64 624}
!625 = metadata !{i64 625}
!626 = metadata !{i64 626}
!627 = metadata !{i64 627}
!628 = metadata !{i64 628}
!629 = metadata !{i64 629}
!630 = metadata !{i64 630}
!631 = metadata !{i64 631}
!632 = metadata !{i64 632}
!633 = metadata !{i64 633}
!634 = metadata !{i64 634}
!635 = metadata !{i64 635}
!636 = metadata !{i64 636}
!637 = metadata !{i64 637}
!638 = metadata !{i64 638}
!639 = metadata !{i64 639}
!640 = metadata !{i64 640}
!641 = metadata !{i64 641}
!642 = metadata !{i64 642}
!643 = metadata !{i64 643}
!644 = metadata !{i64 644}
!645 = metadata !{i64 645}
!646 = metadata !{i64 646}
!647 = metadata !{i64 647}
!648 = metadata !{i64 648}
!649 = metadata !{i64 649}
!650 = metadata !{i64 650}
!651 = metadata !{i64 651}
!652 = metadata !{i64 652}
!653 = metadata !{i64 653}
!654 = metadata !{i64 654}
!655 = metadata !{i64 655}
!656 = metadata !{i64 656}
!657 = metadata !{i64 657}
!658 = metadata !{i64 658}
!659 = metadata !{i64 659}
!660 = metadata !{i64 660}
!661 = metadata !{i64 661}
!662 = metadata !{i64 662}
!663 = metadata !{i64 663}
!664 = metadata !{i64 664}
!665 = metadata !{i64 665}
!666 = metadata !{i64 666}
!667 = metadata !{i64 667}
!668 = metadata !{i64 668}
!669 = metadata !{i64 669}
!670 = metadata !{i64 670}
!671 = metadata !{i64 671}
!672 = metadata !{i64 672}
!673 = metadata !{i64 673}
!674 = metadata !{i64 674}
!675 = metadata !{i64 675}
!676 = metadata !{i64 676}
!677 = metadata !{i64 677}
!678 = metadata !{i64 678}
!679 = metadata !{i64 679}
!680 = metadata !{i64 680}
!681 = metadata !{i64 681}
!682 = metadata !{i64 682}
!683 = metadata !{i64 683}
!684 = metadata !{i64 684}
!685 = metadata !{i64 685}
!686 = metadata !{i64 686}
!687 = metadata !{i64 687}
!688 = metadata !{i64 688}
!689 = metadata !{i64 689}
!690 = metadata !{i64 690}
!691 = metadata !{i64 691}
!692 = metadata !{i64 692}
!693 = metadata !{i64 693}
!694 = metadata !{i64 694}
!695 = metadata !{i64 695}
!696 = metadata !{i64 696}
!697 = metadata !{i64 697}
!698 = metadata !{i64 698}
!699 = metadata !{i64 699}
!700 = metadata !{i64 700}
!701 = metadata !{i64 701}
!702 = metadata !{i64 702}
!703 = metadata !{i64 703}
!704 = metadata !{i64 704}
!705 = metadata !{i64 705}
!706 = metadata !{i64 706}
!707 = metadata !{i64 707}
!708 = metadata !{i64 708}
!709 = metadata !{i64 709}
!710 = metadata !{i64 710}
!711 = metadata !{i64 711}
!712 = metadata !{i64 712}
!713 = metadata !{i64 713}
!714 = metadata !{i64 714}
!715 = metadata !{i64 715}
!716 = metadata !{i64 716}
!717 = metadata !{i64 717}
!718 = metadata !{i64 718}
!719 = metadata !{i64 719}
!720 = metadata !{i64 720}
!721 = metadata !{i64 721}
!722 = metadata !{i64 722}
!723 = metadata !{i64 723}
!724 = metadata !{i64 724}
!725 = metadata !{i64 725}
!726 = metadata !{i64 726}
!727 = metadata !{i64 727}
!728 = metadata !{i64 728}
!729 = metadata !{i64 729}
!730 = metadata !{i64 730}
!731 = metadata !{i64 731}
!732 = metadata !{i64 732}
!733 = metadata !{i64 733}
!734 = metadata !{i64 734}
!735 = metadata !{i64 735}
!736 = metadata !{i64 736}
!737 = metadata !{i64 737}
!738 = metadata !{i64 738}
!739 = metadata !{i64 739}
!740 = metadata !{i64 740}
!741 = metadata !{i64 741}
!742 = metadata !{i64 742}
!743 = metadata !{i64 743}
!744 = metadata !{i64 744}
!745 = metadata !{i64 745}
!746 = metadata !{i64 746}
!747 = metadata !{i64 747}
!748 = metadata !{i64 748}
!749 = metadata !{i64 749}
!750 = metadata !{i64 750}
!751 = metadata !{i64 751}
!752 = metadata !{i64 752}
!753 = metadata !{i64 753}
!754 = metadata !{i64 754}
!755 = metadata !{i64 755}
!756 = metadata !{i64 756}
!757 = metadata !{i64 757}
!758 = metadata !{i64 758}
!759 = metadata !{i64 759}
!760 = metadata !{i64 760}
!761 = metadata !{i64 761}
!762 = metadata !{i64 762}
!763 = metadata !{i64 763}
!764 = metadata !{i64 764}
!765 = metadata !{i64 765}
!766 = metadata !{i64 766}
!767 = metadata !{i64 767}
!768 = metadata !{i64 768}
!769 = metadata !{i64 769}
!770 = metadata !{i64 770}
!771 = metadata !{i64 771}
!772 = metadata !{i64 772}
!773 = metadata !{i64 773}
!774 = metadata !{i64 774}
!775 = metadata !{i64 775}
!776 = metadata !{i64 776}
!777 = metadata !{i64 777}
!778 = metadata !{i64 778}
!779 = metadata !{i64 779}
!780 = metadata !{i64 780}
!781 = metadata !{i64 781}
!782 = metadata !{i64 782}
!783 = metadata !{i64 783}
!784 = metadata !{i64 784}
!785 = metadata !{i64 785}
!786 = metadata !{i64 786}
!787 = metadata !{i64 787}
!788 = metadata !{i64 788}
!789 = metadata !{i64 789}
!790 = metadata !{i64 790}
!791 = metadata !{i64 791}
!792 = metadata !{i64 792}
!793 = metadata !{i64 793}
!794 = metadata !{i64 794}
!795 = metadata !{i64 795}
!796 = metadata !{i64 796}
!797 = metadata !{i64 797}
!798 = metadata !{i64 798}
!799 = metadata !{i64 799}
!800 = metadata !{i64 800}
!801 = metadata !{i64 801}
!802 = metadata !{i64 802}
!803 = metadata !{i64 803}
!804 = metadata !{i64 804}
!805 = metadata !{i64 805}
!806 = metadata !{i64 806}
!807 = metadata !{i64 807}
!808 = metadata !{i64 808}
!809 = metadata !{i64 809}
!810 = metadata !{i64 810}
!811 = metadata !{i64 811}
!812 = metadata !{i64 812}
!813 = metadata !{i64 813}
!814 = metadata !{i64 814}
!815 = metadata !{i64 815}
!816 = metadata !{i64 816}
!817 = metadata !{i64 817}
!818 = metadata !{i64 818}
!819 = metadata !{i64 819}
!820 = metadata !{i64 820}
!821 = metadata !{i64 821}
!822 = metadata !{i64 822}
!823 = metadata !{i64 823}
!824 = metadata !{i64 824}
!825 = metadata !{i64 825}
!826 = metadata !{i64 826}
!827 = metadata !{i64 827}
!828 = metadata !{i64 828}
!829 = metadata !{i64 829}
!830 = metadata !{i64 830}
!831 = metadata !{i64 831}
!832 = metadata !{i64 832}
!833 = metadata !{i64 833}
!834 = metadata !{i64 834}
!835 = metadata !{i64 835}
!836 = metadata !{i64 836}
!837 = metadata !{i64 837}
!838 = metadata !{i64 838}
!839 = metadata !{i64 839}
!840 = metadata !{i64 840}
!841 = metadata !{i64 841}
!842 = metadata !{i64 842}
!843 = metadata !{i64 843}
!844 = metadata !{i64 844}
!845 = metadata !{i64 845}
!846 = metadata !{i64 846}
!847 = metadata !{i64 847}
!848 = metadata !{i64 848}
!849 = metadata !{i64 849}
!850 = metadata !{i64 850}
!851 = metadata !{i64 851}
!852 = metadata !{i64 852}
!853 = metadata !{i64 853}
!854 = metadata !{i64 854}
!855 = metadata !{i64 855}
!856 = metadata !{i64 856}
!857 = metadata !{i64 857}
!858 = metadata !{i64 858}
!859 = metadata !{i64 859}
!860 = metadata !{i64 860}
!861 = metadata !{i64 861}
!862 = metadata !{i64 862}
!863 = metadata !{i64 863}
!864 = metadata !{i64 864}
!865 = metadata !{i64 865}
!866 = metadata !{i64 866}
!867 = metadata !{i64 867}
!868 = metadata !{i64 868}
!869 = metadata !{i64 869}
!870 = metadata !{i64 870}
!871 = metadata !{i64 871}
!872 = metadata !{i64 872}
!873 = metadata !{i64 873}
!874 = metadata !{i64 874}
!875 = metadata !{i64 875}
!876 = metadata !{i64 876}
!877 = metadata !{i64 877}
!878 = metadata !{i64 878}
!879 = metadata !{i64 879}
!880 = metadata !{i64 880}
!881 = metadata !{i64 881}
!882 = metadata !{i64 882}
!883 = metadata !{i64 883}
!884 = metadata !{i64 884}
!885 = metadata !{i64 885}
!886 = metadata !{i64 886}
!887 = metadata !{i64 887}
!888 = metadata !{i64 888}
!889 = metadata !{i64 889}
!890 = metadata !{i64 890}
!891 = metadata !{i64 891}
!892 = metadata !{i64 892}
!893 = metadata !{i64 893}
!894 = metadata !{i64 894}
!895 = metadata !{i64 895}
!896 = metadata !{i64 896}
!897 = metadata !{i64 897}
!898 = metadata !{i64 898}
!899 = metadata !{i64 899}
!900 = metadata !{i64 900}
!901 = metadata !{i64 901}
!902 = metadata !{i64 902}
!903 = metadata !{i64 903}
!904 = metadata !{i64 904}
!905 = metadata !{i64 905}
!906 = metadata !{i64 906}
!907 = metadata !{i64 907}
!908 = metadata !{i64 908}
!909 = metadata !{i64 909}
!910 = metadata !{i64 910}
!911 = metadata !{i64 911}
!912 = metadata !{i64 912}
!913 = metadata !{i64 913}
!914 = metadata !{i64 914}
!915 = metadata !{i64 915}
!916 = metadata !{i64 916}
!917 = metadata !{i64 917}
!918 = metadata !{i64 918}
!919 = metadata !{i64 919}
!920 = metadata !{i64 920}
!921 = metadata !{i64 921}
!922 = metadata !{i64 922}
!923 = metadata !{i64 923}
!924 = metadata !{i64 924}
!925 = metadata !{i64 925}
!926 = metadata !{i64 926}
!927 = metadata !{i64 927}
!928 = metadata !{i64 928}
!929 = metadata !{i64 929}
!930 = metadata !{i64 930}
!931 = metadata !{i64 931}
!932 = metadata !{i64 932}
!933 = metadata !{i64 933}
!934 = metadata !{i64 934}
!935 = metadata !{i64 935}
!936 = metadata !{i64 936}
!937 = metadata !{i64 937}
!938 = metadata !{i64 938}
!939 = metadata !{i64 939}
!940 = metadata !{i64 940}
!941 = metadata !{i64 941}
!942 = metadata !{i64 942}
!943 = metadata !{i64 943}
!944 = metadata !{i64 944}
!945 = metadata !{i64 945}
!946 = metadata !{i64 946}
!947 = metadata !{i64 947}
!948 = metadata !{i64 948}
!949 = metadata !{i64 949}
!950 = metadata !{i64 950}
!951 = metadata !{i64 951}
!952 = metadata !{i64 952}
!953 = metadata !{i64 953}
!954 = metadata !{i64 954}
!955 = metadata !{i64 955}
!956 = metadata !{i64 956}
!957 = metadata !{i64 957}
!958 = metadata !{i64 958}
!959 = metadata !{i64 959}
!960 = metadata !{i64 960}
!961 = metadata !{i64 961}
!962 = metadata !{i64 962}
!963 = metadata !{i64 963}
!964 = metadata !{i64 964}
!965 = metadata !{i64 965}
!966 = metadata !{i64 966}
!967 = metadata !{i64 967}
!968 = metadata !{i64 968}
!969 = metadata !{i64 969}
!970 = metadata !{i64 970}
!971 = metadata !{i64 971}
!972 = metadata !{i64 972}
!973 = metadata !{i64 973}
!974 = metadata !{i64 974}
!975 = metadata !{i64 975}
!976 = metadata !{i64 976}
!977 = metadata !{i64 977}
!978 = metadata !{i64 978}
!979 = metadata !{i64 979}
!980 = metadata !{i64 980}
!981 = metadata !{i64 981}
!982 = metadata !{i64 982}
!983 = metadata !{i64 983}
!984 = metadata !{i64 984}
!985 = metadata !{i64 985}
!986 = metadata !{i64 986}
!987 = metadata !{i64 987}
!988 = metadata !{i64 988}
!989 = metadata !{i64 989}
!990 = metadata !{i64 990}
!991 = metadata !{i64 991}
!992 = metadata !{i64 992}
!993 = metadata !{i64 993}
!994 = metadata !{i64 994}
!995 = metadata !{i64 995}
!996 = metadata !{i64 996}
!997 = metadata !{i64 997}
!998 = metadata !{i64 998}
!999 = metadata !{i64 999}
!1000 = metadata !{i64 1000}
!1001 = metadata !{i64 1001}
!1002 = metadata !{i64 1002}
!1003 = metadata !{i64 1003}
!1004 = metadata !{i64 1004}
!1005 = metadata !{i64 1005}
!1006 = metadata !{i64 1006}
!1007 = metadata !{i64 1007}
!1008 = metadata !{i64 1008}
!1009 = metadata !{i64 1009}
!1010 = metadata !{i64 1010}
!1011 = metadata !{i64 1011}
!1012 = metadata !{i64 1012}
!1013 = metadata !{i64 1013}
!1014 = metadata !{i64 1014}
!1015 = metadata !{i64 1015}
!1016 = metadata !{i64 1016}
!1017 = metadata !{i64 1017}
!1018 = metadata !{i64 1018}
!1019 = metadata !{i64 1019}
!1020 = metadata !{i64 1020}
!1021 = metadata !{i64 1021}
!1022 = metadata !{i64 1022}
!1023 = metadata !{i64 1023}
!1024 = metadata !{i64 1024}
!1025 = metadata !{i64 1025}
!1026 = metadata !{i64 1026}
!1027 = metadata !{i64 1027}
!1028 = metadata !{i64 1028}
!1029 = metadata !{i64 1029}
!1030 = metadata !{i64 1030}
!1031 = metadata !{i64 1031}
!1032 = metadata !{i64 1032}
!1033 = metadata !{i64 1033}
!1034 = metadata !{i64 1034}
!1035 = metadata !{i64 1035}
!1036 = metadata !{i64 1036}
!1037 = metadata !{i64 1037}
!1038 = metadata !{i64 1038}
!1039 = metadata !{i64 1039}
!1040 = metadata !{i64 1040}
!1041 = metadata !{i64 1041}
!1042 = metadata !{i64 1042}
!1043 = metadata !{i64 1043}
!1044 = metadata !{i64 1044}
!1045 = metadata !{i64 1045}
!1046 = metadata !{i64 1046}
!1047 = metadata !{i64 1047}
!1048 = metadata !{i64 1048}
!1049 = metadata !{i64 1049}
!1050 = metadata !{i64 1050}
!1051 = metadata !{i64 1051}
!1052 = metadata !{i64 1052}
!1053 = metadata !{i64 1053}
!1054 = metadata !{i64 1054}
!1055 = metadata !{i64 1055}
!1056 = metadata !{i64 1056}
!1057 = metadata !{i64 1057}
!1058 = metadata !{i64 1058}
!1059 = metadata !{i64 1059}
!1060 = metadata !{i64 1060}
!1061 = metadata !{i64 1061}
!1062 = metadata !{i64 1062}
!1063 = metadata !{i64 1063}
!1064 = metadata !{i64 1064}
!1065 = metadata !{i64 1065}
!1066 = metadata !{i64 1066}
!1067 = metadata !{i64 1067}
!1068 = metadata !{i64 1068}
!1069 = metadata !{i64 1069}
